
First:      Flags=$01 Version=$0002
Comment:    
    
   UNLINKED FROM MAC OS ROM -- ELLIOT WAS HERE
   [11E0, 3600) 


Dictionary:          Flags $00 FirstId 200
                 200: Main
Pad         
Comment:    
    
   #####################################################################################
   
   Module: INTERC_11E0_C2PSTRCPY [11E0, 1222)
   
   Module started due to: FILE directive, MODGUESS (align, label, RTS then padding) 


Dictionary:          Flags $00 FirstId 201
                 201: INTERC_11E0_C2PSTRCPY



Module:              Flags=$88=(ForcedActive Extern Code)  Module="INTERC_11E0_C2PSTRCPY"(201) Segment="Main"(200)
Size:                Flags $00 ModuleSize 66

Content:             Flags $08
Contents offset $0000 size $0042
00000000: 4E56 FFFC      'NV..'            LINK.W     A6,#-$0004
00000004: 48E7 0038      'H..8'            MOVEM.L    A2-A4,-(A7)
00000008: 266E 000C      '&n..'            MOVEA.L    $000C(A6),A3
0000000C: 286E 0008      '(n..'            MOVEA.L    $0008(A6),A4
00000010: 7200           'r.'              MOVEQ      #$00,D1
00000012: 244B           '$K'              MOVEA.L    A3,A2
00000014: 6002           '`.'              BRA.S      *+$0004             ; 00000018
00000016: 5281           'R.'              ADDQ.L     #1,D1
00000018: 4A1B           'J.'              TST.B      (A3)+
0000001A: 66FA           'f.'              BNE.S      *-$0004             ; 00000016
0000001C: 0C81 0000 00FF '......'          CMPI.L     #$000000FF,D1
00000022: 6306           'c.'              BLS.S      *+$0008             ; 0000002A
00000024: 223C 0000 00FF '"<....'          MOVE.L     #$000000FF,D1
0000002A: 2001           ' .'              MOVE.L     D1,D0
0000002C: 5281           'R.'              ADDQ.L     #1,D1
0000002E: 18C0           '..'              MOVE.B     D0,(A4)+
00000030: 6002           '`.'              BRA.S      *+$0004             ; 00000034
00000032: 18DA           '..'              MOVE.B     (A2)+,(A4)+
00000034: 5381           'S.'              SUBQ.L     #1,D1
00000036: 66FA           'f.'              BNE.S      *-$0004             ; 00000032
00000038: 4CEE 1C00 FFF0 'L.....'          MOVEM.L    -$0010(A6),A2-A4
0000003E: 4E5E           'N^'              UNLK       A6
00000040: 4E75           'Nu'              RTS        

Comment:    
    
   INTERC_11E0_C2PSTRCPY ended due to: ran into next module, 14 nulls trimmed

Comment:    
    
   #####################################################################################
   
   Module: INTERC_1230 [1230, 12BC)
   
   Module started due to: MODGUESS (align, label, RTS then padding)
   
   Resolved outgoing references:
      +1C (124C): JSR c2pstr ; outside file
      +16 (1246): JSR strcpy ; outside file


Dictionary:          Flags $00 FirstId 202
                 202: INTERC_1230



Module:              Flags=$88=(ForcedActive Extern Code)  Module="INTERC_1230"(202) Segment="Main"(200)
Size:                Flags $00 ModuleSize 140

Content:             Flags $08
Contents offset $0000 size $008C
00000000: 4E56 FDE8      'NV..'            LINK.W     A6,#-$0218
00000004: 48E7 0118      'H...'            MOVEM.L    D7/A3/A4,-(A7)
00000008: 47EE FF00      'G...'            LEA        -$0100(A6),A3
0000000C: 49EE FE00      'I...'            LEA        -$0200(A6),A4
00000010: 2F2E 0010      '/...'            MOVE.L     $0010(A6),-(A7)
00000014: 2F0C           '/.'              MOVE.L     A4,-(A7)
00000016: 4EBA 0000      'N...'            JSR        strcpy              ; id: 204
0000001A: 2F0C           '/.'              MOVE.L     A4,-(A7)
0000001C: 4EBA 0000      'N...'            JSR        c2pstr              ; id: 203
00000020: 7000           'p.'              MOVEQ      #$00,D0
00000022: 2D40 FDE8      '-@..'            MOVE.L     D0,-$0218(A6)
00000026: 2D6E 0008 FDEC '-n....'          MOVE.L     $0008(A6),-$0214(A6)
0000002C: 2D6E 000C FDF0 '-n....'          MOVE.L     $000C(A6),-$0210(A6)
00000032: 426E FDF4      'Bn..'            CLR.W      -$020C(A6)
00000036: 426E FDF6      'Bn..'            CLR.W      -$020A(A6)
0000003A: 558F           'U.'              SUBQ.L     #2,A7
0000003C: 486E FDE8      'Hn..'            PEA        -$0218(A6)
00000040: 7000           'p.'              MOVEQ      #$00,D0
00000042: 2F00           '/.'              MOVE.L     D0,-(A7)
00000044: 2F0C           '/.'              MOVE.L     A4,-(A7)
00000046: 7200           'r.'              MOVEQ      #$00,D1
00000048: 1F01           '..'              MOVE.B     D1,-(A7)
0000004A: 3F3C FFFC      '?<..'            MOVE.W     #$FFFC,-(A7)
0000004E: AA5A           '.Z'              _CodeFragmentDispatch                      ; AA5A
00000050: 3E1F           '>.'              MOVE.W     (A7)+,D7
00000052: 4FEF 000C      'O...'            LEA        $000C(A7),A7
00000056: 6628           'f('              BNE.S      *+$002A             ; 00000080
00000058: 4A2E 0017      'J...'            TST.B      $0017(A6)
0000005C: 6722           'g"'              BEQ.S      *+$0024             ; 00000080
0000005E: 4213           'B.'              CLR.B      (A3)
00000060: 558F           'U.'              SUBQ.L     #2,A7
00000062: 2F0C           '/.'              MOVE.L     A4,-(A7)
00000064: 2F3C 7077 7063 '/<pwpc'          MOVE.L     #$70777063,-(A7)    ; 'pwpc'
0000006A: 7001           'p.'              MOVEQ      #$01,D0
0000006C: 2F00           '/.'              MOVE.L     D0,-(A7)
0000006E: 486E FDF8      'Hn..'            PEA        -$0208(A6)
00000072: 486E FDFC      'Hn..'            PEA        -$0204(A6)
00000076: 2F0B           '/.'              MOVE.L     A3,-(A7)
00000078: 3F3C 0001      '?<..'            MOVE.W     #$0001,-(A7)
0000007C: AA5A           '.Z'              _CodeFragmentDispatch                      ; AA5A
0000007E: 3E1F           '>.'              MOVE.W     (A7)+,D7
00000080: 3007           '0.'              MOVE.W     D7,D0
00000082: 4CEE 1880 FDDC 'L.....'          MOVEM.L    -$0224(A6),D7/A3/A4
00000088: 4E5E           'N^'              UNLK       A6
0000008A: 4E75           'Nu'              RTS        


Dictionary:          Flags $00 FirstId 203
                 203: c2pstr
Pad         

Reference:           Flags=$18=(16BitPatch 32BitOffsets FromCode) 
                     Ref="c2pstr"(203)
                      0000001E

Dictionary:          Flags $00 FirstId 204
                 204: strcpy
Pad         

Reference:           Flags=$18=(16BitPatch 32BitOffsets FromCode) 
                     Ref="strcpy"(204)
                      00000018
Comment:    
    
   INTERC_1230 ended due to: BRA.L island below, 4 nulls trimmed 

Comment:    
    
   #####################################################################################
   
   Module: INTERC_12E0_CODEPREPARE [12E0, 14C0)
   
   Module started due to: island above, MODGUESS (align, label, BRA.L then padding)
   
   Resolved outgoing references:
      +12A (140A): JSR strcmp ; outside file
      +110 (13F0): JSR strcmp ; outside file
      +FE (13DE): JSR strcmp ; outside file
      +138 (1418): JSR strlen ; outside file
      +9C (137C): JSR strlen ; outside file
      +182 (1462): JSR INTERC_1230
      +90 (1370): JSR INTERC_1230


Dictionary:          Flags $00 FirstId 205
                 205: INTERC_12E0_CODEPREPARE



Module:              Flags=$88=(ForcedActive Extern Code)  Module="INTERC_12E0_CODEPREPARE"(205) Segment="Main"(200)
Size:                Flags $00 ModuleSize 480

Content:             Flags $08
Contents offset $0000 size $01E0
00000000: 4E56 FFBA      'NV..'            LINK.W     A6,#-$0046
00000004: 48E7 1718      'H...'            MOVEM.L    D3/D5-D7/A3/A4,-(A7)
00000008: 1A2E 000F      '....'            MOVE.B     $000F(A6),D5
0000000C: 47EE FFCE      'G...'            LEA        -$0032(A6),A3
00000010: 486E FFBE      'Hn..'            PEA        -$0042(A6)
00000014: 7000           'p.'              MOVEQ      #$00,D0
00000016: ABE9           '..'              DC.W       $ABE9               ; TB 03E9
00000018: 486E FFBE      'Hn..'            PEA        -$0042(A6)
0000001C: 2F2E 0008      '/...'            MOVE.L     $0008(A6),-(A7)
00000020: 7000           'p.'              MOVEQ      #$00,D0
00000022: 2F00           '/.'              MOVE.L     D0,-(A7)
00000024: 700C           'p.'              MOVEQ      #$0C,D0
00000026: ABE9           '..'              DC.W       $ABE9               ; TB 03E9
00000028: 3C00           '<.'              MOVE.W     D0,D6
0000002A: 7000           'p.'              MOVEQ      #$00,D0
0000002C: 2D40 FFFA      '-@..'            MOVE.L     D0,-$0006(A6)
00000030: 2D40 FFF2      '-@..'            MOVE.L     D0,-$000E(A6)
00000034: 4A46           'JF'              TST.W      D6
00000036: 4FEF 0010      'O...'            LEA        $0010(A7),A7
0000003A: 6678           'fx'              BNE.S      *+$007A             ; 000000B4
0000003C: 4A05           'J.'              TST.B      D5
0000003E: 6774           'gt'              BEQ.S      *+$0076             ; 000000B4
00000040: 486E FFF2      'Hn..'            PEA        -$000E(A6)
00000044: 486E FFFA      'Hn..'            PEA        -$0006(A6)
00000048: 487A 016E      'Hz.n'            PEA        *+$0170             ; 000001B8
0000004C: 486E FFBE      'Hn..'            PEA        -$0042(A6)
00000050: 70FA           'p.'              MOVEQ      #$FA,D0
00000052: ABE9           '..'              DC.W       $ABE9               ; TB 03E9
00000054: 3C00           '<.'              MOVE.W     D0,D6
00000056: 4FEF 0010      'O...'            LEA        $0010(A7),A7
0000005A: 6704           'g.'              BEQ.S      *+$0006             ; 00000060
0000005C: 4246           'BF'              CLR.W      D6
0000005E: 6054           '`T'              BRA.S      *+$0056             ; 000000B4
00000060: 286E FFFA      '(n..'            MOVEA.L    -$0006(A6),A4
00000064: 6040           '`@'              BRA.S      *+$0042             ; 000000A6
00000066: 486E FFEE      'Hn..'            PEA        -$0012(A6)
0000006A: 486E FFF6      'Hn..'            PEA        -$000A(A6)
0000006E: 2F0C           '/.'              MOVE.L     A4,-(A7)
00000070: 486E FFBE      'Hn..'            PEA        -$0042(A6)
00000074: 70FA           'p.'              MOVEQ      #$FA,D0
00000076: ABE9           '..'              DC.W       $ABE9               ; TB 03E9
00000078: 3C00           '<.'              MOVE.W     D0,D6
0000007A: 4FEF 0010      'O...'            LEA        $0010(A7),A7
0000007E: 661A           'f.'              BNE.S      *+$001C             ; 0000009A
00000080: 7000           'p.'              MOVEQ      #$00,D0
00000082: 1005           '..'              MOVE.B     D5,D0
00000084: 2F00           '/.'              MOVE.L     D0,-(A7)
00000086: 2F0C           '/.'              MOVE.L     A4,-(A7)
00000088: 2F2E FFEE      '/...'            MOVE.L     -$0012(A6),-(A7)
0000008C: 2F2E FFF6      '/...'            MOVE.L     -$000A(A6),-(A7)
00000090: 4EBA 0000      'N...'            JSR        INTERC_1230         ; id: 202
00000094: 3C00           '<.'              MOVE.W     D0,D6
00000096: 4FEF 0010      'O...'            LEA        $0010(A7),A7
0000009A: 2F0C           '/.'              MOVE.L     A4,-(A7)
0000009C: 4EBA 0000      'N...'            JSR        strlen              ; id: 207
000000A0: 5280           'R.'              ADDQ.L     #1,D0
000000A2: D9C0           '..'              ADDA.L     D0,A4
000000A4: 584F           'XO'              ADDQ.W     #4,A7
000000A6: 202E FFF2      ' ...'            MOVE.L     -$000E(A6),D0
000000AA: D0AE FFFA      '....'            ADD.L      -$0006(A6),D0
000000AE: B08C           '..'              CMP.L      A4,D0
000000B0: 62B4           'b.'              BHI.S      *-$004A             ; 00000066
000000B2: 4246           'BF'              CLR.W      D6
000000B4: 4A46           'JF'              TST.W      D6
000000B6: 6600 00EA      'f...'            BNE        *+$00EC             ; 000001A2
000000BA: 422E FFFF      'B...'            CLR.B      -$0001(A6)
000000BE: 486E FFBA      'Hn..'            PEA        -$0046(A6)
000000C2: 486E FFBE      'Hn..'            PEA        -$0042(A6)
000000C6: 7013           'p.'              MOVEQ      #$13,D0
000000C8: ABE9           '..'              DC.W       $ABE9               ; TB 03E9
000000CA: 3C00           '<.'              MOVE.W     D0,D6
000000CC: 504F           'PO'              ADDQ.W     #8,A7
000000CE: 6600 00D2      'f...'            BNE        *+$00D4             ; 000001A2
000000D2: 6000 00B8      '`...'            BRA        *+$00BA             ; 0000018C
000000D6: 486E FFFF      'Hn..'            PEA        -$0001(A6)
000000DA: 2F0B           '/.'              MOVE.L     A3,-(A7)
000000DC: 486E FFBA      'Hn..'            PEA        -$0046(A6)
000000E0: 7015           'p.'              MOVEQ      #$15,D0
000000E2: ABE9           '..'              DC.W       $ABE9               ; TB 03E9
000000E4: 3C00           '<.'              MOVE.W     D0,D6
000000E6: 4A2E FFFF      'J...'            TST.B      -$0001(A6)
000000EA: 4FEF 000C      'O...'            LEA        $000C(A7),A7
000000EE: 6600 009C      'f...'            BNE        *+$009E             ; 0000018C
000000F2: 4A46           'JF'              TST.W      D6
000000F4: 6600 0096      'f...'            BNE        *+$0098             ; 0000018C
000000F8: 487A 00D2      'Hz..'            PEA        *+$00D4             ; 000001CC
000000FC: 2F0B           '/.'              MOVE.L     A3,-(A7)
000000FE: 4EBA 0000      'N...'            JSR        strcmp              ; id: 206
00000102: 4A80           'J.'              TST.L      D0
00000104: 504F           'PO'              ADDQ.W     #8,A7
00000106: 6700 0084      'g...'            BEQ        *+$0086             ; 0000018C
0000010A: 487A 00AC      'Hz..'            PEA        *+$00AE             ; 000001B8
0000010E: 2F0B           '/.'              MOVE.L     A3,-(A7)
00000110: 4EBA 0000      'N...'            JSR        strcmp              ; id: 206
00000114: 4A80           'J.'              TST.L      D0
00000116: 504F           'PO'              ADDQ.W     #8,A7
00000118: 6772           'gr'              BEQ.S      *+$0074             ; 0000018C
0000011A: 4207           'B.'              CLR.B      D7
0000011C: 286E FFFA      '(n..'            MOVEA.L    -$0006(A6),A4
00000120: 200C           ' .'              MOVE.L     A4,D0
00000122: 6730           'g0'              BEQ.S      *+$0032             ; 00000154
00000124: 601E           '`.'              BRA.S      *+$0020             ; 00000144
00000126: 2F0C           '/.'              MOVE.L     A4,-(A7)
00000128: 2F0B           '/.'              MOVE.L     A3,-(A7)
0000012A: 4EBA 0000      'N...'            JSR        strcmp              ; id: 206
0000012E: 4A80           'J.'              TST.L      D0
00000130: 57C3           'W.'              SEQ        D3
00000132: 4403           'D.'              NEG.B      D3
00000134: 1E03           '..'              MOVE.B     D3,D7
00000136: 2F0C           '/.'              MOVE.L     A4,-(A7)
00000138: 4EBA 0000      'N...'            JSR        strlen              ; id: 207
0000013C: 5280           'R.'              ADDQ.L     #1,D0
0000013E: D9C0           '..'              ADDA.L     D0,A4
00000140: 4FEF 000C      'O...'            LEA        $000C(A7),A7
00000144: 4A07           'J.'              TST.B      D7
00000146: 660C           'f.'              BNE.S      *+$000E             ; 00000154
00000148: 202E FFF2      ' ...'            MOVE.L     -$000E(A6),D0
0000014C: D0AE FFFA      '....'            ADD.L      -$0006(A6),D0
00000150: B08C           '..'              CMP.L      A4,D0
00000152: 62D2           'b.'              BHI.S      *-$002C             ; 00000126
00000154: 4A07           'J.'              TST.B      D7
00000156: 6634           'f4'              BNE.S      *+$0036             ; 0000018C
00000158: 486E FFEE      'Hn..'            PEA        -$0012(A6)
0000015C: 486E FFF6      'Hn..'            PEA        -$000A(A6)
00000160: 2F0B           '/.'              MOVE.L     A3,-(A7)
00000162: 486E FFBE      'Hn..'            PEA        -$0042(A6)
00000166: 70FA           'p.'              MOVEQ      #$FA,D0
00000168: ABE9           '..'              DC.W       $ABE9               ; TB 03E9
0000016A: 3C00           '<.'              MOVE.W     D0,D6
0000016C: 4FEF 0010      'O...'            LEA        $0010(A7),A7
00000170: 661A           'f.'              BNE.S      *+$001C             ; 0000018C
00000172: 7000           'p.'              MOVEQ      #$00,D0
00000174: 1005           '..'              MOVE.B     D5,D0
00000176: 2F00           '/.'              MOVE.L     D0,-(A7)
00000178: 2F0B           '/.'              MOVE.L     A3,-(A7)
0000017A: 2F2E FFEE      '/...'            MOVE.L     -$0012(A6),-(A7)
0000017E: 2F2E FFF6      '/...'            MOVE.L     -$000A(A6),-(A7)
00000182: 4EBA 0000      'N...'            JSR        INTERC_1230         ; id: 202
00000186: 3C00           '<.'              MOVE.W     D0,D6
00000188: 4FEF 0010      'O...'            LEA        $0010(A7),A7
0000018C: 4A2E FFFF      'J...'            TST.B      -$0001(A6)
00000190: 6606           'f.'              BNE.S      *+$0008             ; 00000198
00000192: 4A46           'JF'              TST.W      D6
00000194: 6700 FF40      'g..@'            BEQ        *-$00BE             ; 000000D6
00000198: 486E FFBA      'Hn..'            PEA        -$0046(A6)
0000019C: 7014           'p.'              MOVEQ      #$14,D0
0000019E: ABE9           '..'              DC.W       $ABE9               ; TB 03E9
000001A0: 584F           'XO'              ADDQ.W     #4,A7
000001A2: 486E FFBE      'Hn..'            PEA        -$0042(A6)
000001A6: 7003           'p.'              MOVEQ      #$03,D0
000001A8: ABE9           '..'              DC.W       $ABE9               ; TB 03E9
000001AA: 3006           '0.'              MOVE.W     D6,D0
000001AC: 584F           'XO'              ADDQ.W     #4,A7
000001AE: 4CEE 18E8 FFA2 'L.....'          MOVEM.L    -$005E(A6),D3/D5-D7/A3/A4
000001B4: 4E5E           'N^'              UNLK       A6
000001B6: 4E75           'Nu'              RTS        
000001B8: 4141           'AA'              DC.W       $4141               ; ????
000001BA: 504C           'PL'              ADDQ.W     #8,A4
000001BC: 2C70 7265      ',pre'            MOVEA.L    $65(A0,D7.W*2),A6
000001C0: 7061           'pa'              MOVEQ      #$61,D0             ; 'a'
000001C2: 7265           're'              MOVEQ      #$65,D1             ; 'e'
000001C4: 5F6F 7264      '_ord'            SUBQ.W     #7,$7264(A7)
000001C8: 6572           'er'              BCS.S      *+$0074             ; 0000023C
000001CA: 0000 6E61      '..na'            ORI.B      #$61,D0             ; 'a'
000001CE: 6D65           'me'              BLT.S      *+$0067             ; 00000235
000001D0: 0000 0000      '....'            ORI.B      #$00,D0
000001D4: 0000 0000      '....'            ORI.B      #$00,D0
000001D8: 0000 0000      '....'            ORI.B      #$00,D0
000001DC: 0000 0000      '....'            ORI.B      #$00,D0


Dictionary:          Flags $00 FirstId 206
                 206: strcmp
Pad         

Reference:           Flags=$18=(16BitPatch 32BitOffsets FromCode) 
                     Ref="strcmp"(206)
                      0000012C

Reference:           Flags=$18=(16BitPatch 32BitOffsets FromCode) 
                     Ref="strcmp"(206)
                      00000112

Reference:           Flags=$18=(16BitPatch 32BitOffsets FromCode) 
                     Ref="strcmp"(206)
                      00000100

Dictionary:          Flags $00 FirstId 207
                 207: strlen
Pad         

Reference:           Flags=$18=(16BitPatch 32BitOffsets FromCode) 
                     Ref="strlen"(207)
                      0000013A

Reference:           Flags=$18=(16BitPatch 32BitOffsets FromCode) 
                     Ref="strlen"(207)
                      0000009E

Reference:           Flags=$18=(16BitPatch 32BitOffsets FromCode) 
                     Ref="INTERC_1230"(202)
                      00000184

Reference:           Flags=$18=(16BitPatch 32BitOffsets FromCode) 
                     Ref="INTERC_1230"(202)
                      00000092
Comment:    
    
   INTERC_12E0_CODEPREPARE ended due to: BRA.L island below

Comment:    
    
   #####################################################################################
   
   Module: INTERC_14E0 [14E0, 15BC)
   
   Module started due to: island above, MODGUESS (align, label, BRA.L then padding)
   
   Resolved outgoing references:
      +AA (158A): JSR INTERC_1230


Dictionary:          Flags $00 FirstId 208
                 208: INTERC_14E0



Module:              Flags=$88=(ForcedActive Extern Code)  Module="INTERC_14E0"(208) Segment="Main"(200)
Size:                Flags $00 ModuleSize 220

Content:             Flags $08
Contents offset $0000 size $00DC
00000000: 4E56 FFDA      'NV..'            LINK.W     A6,#-$0026
00000004: 48E7 0718      'H...'            MOVEM.L    D5-D7/A3/A4,-(A7)
00000008: 1A2E 0013      '....'            MOVE.B     $0013(A6),D5
0000000C: 266E 000C      '&n..'            MOVEA.L    $000C(A6),A3
00000010: 286E 0008      '(n..'            MOVEA.L    $0008(A6),A4
00000014: 486E FFDE      'Hn..'            PEA        -$0022(A6)
00000018: 7000           'p.'              MOVEQ      #$00,D0
0000001A: ABE9           '..'              DC.W       $ABE9               ; TB 03E9
0000001C: 486E FFDA      'Hn..'            PEA        -$0026(A6)
00000020: 7007           'p.'              MOVEQ      #$07,D0
00000022: ABE9           '..'              DC.W       $ABE9               ; TB 03E9
00000024: 4246           'BF'              CLR.W      D6
00000026: 422E FFFB      'B...'            CLR.B      -$0005(A6)
0000002A: 504F           'PO'              ADDQ.W     #8,A7
0000002C: 6000 0084      '`...'            BRA        *+$0086             ; 000000B2
00000030: 7000           'p.'              MOVEQ      #$00,D0
00000032: 2F00           '/.'              MOVE.L     D0,-(A7)
00000034: 2F00           '/.'              MOVE.L     D0,-(A7)
00000036: 2F0C           '/.'              MOVE.L     A4,-(A7)
00000038: 486E FFFB      'Hn..'            PEA        -$0005(A6)
0000003C: 486E FFDE      'Hn..'            PEA        -$0022(A6)
00000040: 7201           'r.'              MOVEQ      #$01,D1
00000042: 2F01           '/.'              MOVE.L     D1,-(A7)
00000044: 486E FFDA      'Hn..'            PEA        -$0026(A6)
00000048: 700B           'p.'              MOVEQ      #$0B,D0
0000004A: ABE9           '..'              DC.W       $ABE9               ; TB 03E9
0000004C: 3C00           '<.'              MOVE.W     D0,D6
0000004E: 4FEF 001C      'O...'            LEA        $001C(A7),A7
00000052: 665E           'f^'              BNE.S      *+$0060             ; 000000B2
00000054: 4A2E FFFB      'J...'            TST.B      -$0005(A6)
00000058: 6658           'fX'              BNE.S      *+$005A             ; 000000B2
0000005A: 7000           'p.'              MOVEQ      #$00,D0
0000005C: 2D40 FFF6      '-@..'            MOVE.L     D0,-$000A(A6)
00000060: 2D40 FFF2      '-@..'            MOVE.L     D0,-$000E(A6)
00000064: 486E FFF2      'Hn..'            PEA        -$000E(A6)
00000068: 486E FFFC      'Hn..'            PEA        -$0004(A6)
0000006C: 2F0C           '/.'              MOVE.L     A4,-(A7)
0000006E: 486E FFDE      'Hn..'            PEA        -$0022(A6)
00000072: 70FA           'p.'              MOVEQ      #$FA,D0
00000074: ABE9           '..'              DC.W       $ABE9               ; TB 03E9
00000076: 3E00           '>.'              MOVE.W     D0,D7
00000078: 4FEF 0010      'O...'            LEA        $0010(A7),A7
0000007C: 6634           'f4'              BNE.S      *+$0036             ; 000000B2
0000007E: 486E FFF6      'Hn..'            PEA        -$000A(A6)
00000082: 486E FFEE      'Hn..'            PEA        -$0012(A6)
00000086: 2F0B           '/.'              MOVE.L     A3,-(A7)
00000088: 486E FFDE      'Hn..'            PEA        -$0022(A6)
0000008C: 70FA           'p.'              MOVEQ      #$FA,D0
0000008E: ABE9           '..'              DC.W       $ABE9               ; TB 03E9
00000090: 3E00           '>.'              MOVE.W     D0,D7
00000092: 4FEF 0010      'O...'            LEA        $0010(A7),A7
00000096: 661A           'f.'              BNE.S      *+$001C             ; 000000B2
00000098: 7000           'p.'              MOVEQ      #$00,D0
0000009A: 1005           '..'              MOVE.B     D5,D0
0000009C: 2F00           '/.'              MOVE.L     D0,-(A7)
0000009E: 2F2E FFEE      '/...'            MOVE.L     -$0012(A6),-(A7)
000000A2: 2F2E FFF2      '/...'            MOVE.L     -$000E(A6),-(A7)
000000A6: 2F2E FFFC      '/...'            MOVE.L     -$0004(A6),-(A7)
000000AA: 4EBA 0000      'N...'            JSR        INTERC_1230         ; id: 202
000000AE: 4FEF 0010      'O...'            LEA        $0010(A7),A7
000000B2: 4A46           'JF'              TST.W      D6
000000B4: 6608           'f.'              BNE.S      *+$000A             ; 000000BE
000000B6: 4A2E FFFB      'J...'            TST.B      -$0005(A6)
000000BA: 6700 FF74      'g..t'            BEQ        *-$008A             ; 00000030
000000BE: 486E FFDA      'Hn..'            PEA        -$0026(A6)
000000C2: 7008           'p.'              MOVEQ      #$08,D0
000000C4: ABE9           '..'              DC.W       $ABE9               ; TB 03E9
000000C6: 486E FFDE      'Hn..'            PEA        -$0022(A6)
000000CA: 7003           'p.'              MOVEQ      #$03,D0
000000CC: ABE9           '..'              DC.W       $ABE9               ; TB 03E9
000000CE: 3006           '0.'              MOVE.W     D6,D0
000000D0: 504F           'PO'              ADDQ.W     #8,A7
000000D2: 4CEE 18E0 FFC6 'L.....'          MOVEM.L    -$003A(A6),D5-D7/A3/A4
000000D8: 4E5E           'N^'              UNLK       A6
000000DA: 4E75           'Nu'              RTS        


Reference:           Flags=$18=(16BitPatch 32BitOffsets FromCode) 
                     Ref="INTERC_1230"(202)
                      000000AC
Comment:    
    
   INTERC_14E0 ended due to: ran into next module, 4 nulls trimmed 

Comment:    
    
   #####################################################################################
   
   Module: INTERC_15C0_CODEPREPARE2 [15C0, 1680)
   
   Module started due to: MODGUESS (align, label, RTS then padding)
   
   Resolved outgoing references:
      +34 (15F4): JSR strcat ; outside file
      +2A (15EA): JSR strcpy ; outside file
      +3E (15FE): JSR INTERC_12E0_CODEPREPARE
      +18 (15D8): JSR INTERC_14E0 


Dictionary:          Flags $00 FirstId 209
                 209: INTERC_15C0_CODEPREPARE2
Pad         



Module:              Flags=$88=(ForcedActive Extern Code)  Module="INTERC_15C0_CODEPREPARE2"(209) Segment="Main"(200)
Size:                Flags $00 ModuleSize 192

Content:             Flags $08
Contents offset $0000 size $00C0
00000000: 4E56 FF80      'NV..'            LINK.W     A6,#-$0080
00000004: 48E7 0108      'H...'            MOVEM.L    D7/A4,-(A7)
00000008: 49EE FF80      'I...'            LEA        -$0080(A6),A4
0000000C: 7001           'p.'              MOVEQ      #$01,D0
0000000E: 2F00           '/.'              MOVE.L     D0,-(A7)
00000010: 487A 008A      'Hz..'            PEA        *+$008C             ; 0000009C
00000014: 487A 0066      'Hz.f'            PEA        *+$0068             ; 0000007C
00000018: 4EBA 0000      'N...'            JSR        INTERC_14E0         ; id: 208
0000001C: 3E00           '>.'              MOVE.W     D0,D7
0000001E: 4FEF 000C      'O...'            LEA        $000C(A7),A7
00000022: 6624           'f$'              BNE.S      *+$0026             ; 00000048
00000024: 487A 0040      'Hz.@'            PEA        *+$0042             ; 00000066
00000028: 2F0C           '/.'              MOVE.L     A4,-(A7)
0000002A: 4EBA 0000      'N...'            JSR        strcpy              ; id: 204
0000002E: 487A 0024      'Hz.$'            PEA        *+$0026             ; 00000054
00000032: 2F0C           '/.'              MOVE.L     A4,-(A7)
00000034: 4EBA 0000      'N...'            JSR        strcat              ; id: 210
00000038: 7001           'p.'              MOVEQ      #$01,D0
0000003A: 2F00           '/.'              MOVE.L     D0,-(A7)
0000003C: 2F0C           '/.'              MOVE.L     A4,-(A7)
0000003E: 4EBA 0000      'N...'            JSR        INTERC_12E0_CODEPREPARE ; id: 205
00000042: 3E00           '>.'              MOVE.W     D0,D7
00000044: 4FEF 0018      'O...'            LEA        $0018(A7),A7
00000048: 3007           '0.'              MOVE.W     D7,D0
0000004A: 4CEE 1080 FF78 'L....x'          MOVEM.L    -$0088(A6),D7/A4
00000050: 4E5E           'N^'              UNLK       A6
00000052: 4E75           'Nu'              RTS        
00000054: 4141           'AA'              DC.W       $4141               ; ????
00000056: 504C           'PL'              ADDQ.W     #8,A4
00000058: 2C43           ',C'              MOVEA.L    D3,A6
0000005A: 6F64           'od'              BLE.S      *+$0066             ; 000000C0
0000005C: 6550           'eP'              BCS.S      *+$0052             ; 000000AE
0000005E: 7265           're'              MOVEQ      #$65,D1             ; 'e'
00000060: 7061           'pa'              MOVEQ      #$61,D0             ; 'a'
00000062: 7265           're'              MOVEQ      #$65,D1             ; 'e'
00000064: 0000 4465      '..De'            ORI.B      #$65,D0             ; 'e'
00000068: 7669           'vi'              MOVEQ      #$69,D3             ; 'i'
0000006A: 6365           'ce'              BLS.S      *+$0067             ; 000000D1
0000006C: 733A           's:'              DC.W       $733A               ; ????
0000006E: 6465           'de'              BCC.S      *+$0067             ; 000000D5
00000070: 7669           'vi'              MOVEQ      #$69,D3             ; 'i'
00000072: 6365           'ce'              BLS.S      *+$0067             ; 000000D9
00000074: 2D74 7265 653A '-tree:'          MOVE.L     $65(A4,D7.W*2),$653A(A6)
0000007A: 0000 7065      '..pe'            ORI.B      #$65,D0             ; 'e'
0000007E: 662C           'f,'              BNE.S      *+$002E             ; 000000AC
00000080: 4141           'AA'              DC.W       $4141               ; ????
00000082: 504C           'PL'              ADDQ.W     #8,A4
00000084: 2C4D           ',M'              MOVEA.L    A5,A6
00000086: 6163           'ac'              BSR.S      *+$0065             ; 000000EB
00000088: 4F53           'OS'              DC.W       $4F53               ; ????
0000008A: 2C50           ',P'              MOVEA.L    (A0),A6
0000008C: 6F77           'ow'              BLE.S      *+$0079             ; 00000105
0000008E: 6572           'er'              BCS.S      *+$0074             ; 00000102
00000090: 5043           'PC'              ADDQ.W     #8,D3
00000092: 2C70 7265      ',pre'            MOVEA.L    $65(A0,D7.W*2),A6
00000096: 7061           'pa'              MOVEQ      #$61,D0             ; 'a'
00000098: 7265           're'              MOVEQ      #$65,D1             ; 'e'
0000009A: 0000 636F      '..co'            ORI.B      #$6F,D0             ; 'o'
0000009E: 6465           'de'              BCC.S      *+$0067             ; 00000105
000000A0: 2C41           ',A'              MOVEA.L    D1,A6
000000A2: 4150           'AP'              DC.W       $4150               ; ????
000000A4: 4C2C 4D61 634F 'L,MacO'          MULS.L     $634F(A4),D1:D4
000000AA: 532C 6E61      'S,na'            SUBQ.B     #1,$6E61(A4)
000000AE: 6D65           'me'              BLT.S      *+$0067             ; 00000115
000000B0: 0000 0000      '....'            ORI.B      #$00,D0
000000B4: 0000 0000      '....'            ORI.B      #$00,D0
000000B8: 0000 0000      '....'            ORI.B      #$00,D0
000000BC: 0000 0000      '....'            ORI.B      #$00,D0


Dictionary:          Flags $00 FirstId 210
                 210: strcat
Pad         

Reference:           Flags=$18=(16BitPatch 32BitOffsets FromCode) 
                     Ref="strcat"(210)
                      00000036

Reference:           Flags=$18=(16BitPatch 32BitOffsets FromCode) 
                     Ref="strcpy"(204)
                      0000002C

Reference:           Flags=$18=(16BitPatch 32BitOffsets FromCode) 
                     Ref="INTERC_12E0_CODEPREPARE"(205)
                      00000040

Reference:           Flags=$18=(16BitPatch 32BitOffsets FromCode) 
                     Ref="INTERC_14E0"(208)
                      0000001A
Comment:    
    
   INTERC_15C0_CODEPREPARE2 ended due to: BRA.L island below 

Comment:    
    
   #####################################################################################
   
   Module: INTERC_1690_CODEREGISTER [1690, 188A)
   
   Module started due to: island above, MODGUESS (align, label, BRA.L then padding)
   
   Resolved outgoing references:
      +34 (16C4): JSR strcat ; outside file
      +2A (16BA): JSR strcpy ; outside file
      +3E (16CE): JSR INTERC_12E0_CODEPREPARE
      +18 (16A8): JSR INTERC_14E0
   
   +C0 (1750): INTERC_1750_LANLIB 


Dictionary:          Flags $00 FirstId 211
                 211: INTERC_1690_CODEREGISTER
                 212: INTERC_1750_LANLIB



Module:              Flags=$88=(ForcedActive Extern Code)  Module="INTERC_1690_CODEREGISTER"(211) Segment="Main"(200)
Size:                Flags $00 ModuleSize 506

Content:             Flags $08
Contents offset $0000 size $01FA
00000000: 4E56 FF80      'NV..'            LINK.W     A6,#-$0080
00000004: 48E7 0108      'H...'            MOVEM.L    D7/A4,-(A7)
00000008: 49EE FF80      'I...'            LEA        -$0080(A6),A4
0000000C: 7000           'p.'              MOVEQ      #$00,D0
0000000E: 2F00           '/.'              MOVE.L     D0,-(A7)
00000010: 487A 008A      'Hz..'            PEA        *+$008C             ; 0000009C
00000014: 487A 0066      'Hz.f'            PEA        *+$0068             ; 0000007C
00000018: 4EBA 0000      'N...'            JSR        INTERC_14E0         ; id: 208
0000001C: 3E00           '>.'              MOVE.W     D0,D7
0000001E: 4FEF 000C      'O...'            LEA        $000C(A7),A7
00000022: 6624           'f$'              BNE.S      *+$0026             ; 00000048
00000024: 487A 0040      'Hz.@'            PEA        *+$0042             ; 00000066
00000028: 2F0C           '/.'              MOVE.L     A4,-(A7)
0000002A: 4EBA 0000      'N...'            JSR        strcpy              ; id: 204
0000002E: 487A 0024      'Hz.$'            PEA        *+$0026             ; 00000054
00000032: 2F0C           '/.'              MOVE.L     A4,-(A7)
00000034: 4EBA 0000      'N...'            JSR        strcat              ; id: 210
00000038: 7000           'p.'              MOVEQ      #$00,D0
0000003A: 2F00           '/.'              MOVE.L     D0,-(A7)
0000003C: 2F0C           '/.'              MOVE.L     A4,-(A7)
0000003E: 4EBA 0000      'N...'            JSR        INTERC_12E0_CODEPREPARE ; id: 205
00000042: 3E00           '>.'              MOVE.W     D0,D7
00000044: 4FEF 0018      'O...'            LEA        $0018(A7),A7
00000048: 3007           '0.'              MOVE.W     D7,D0
0000004A: 4CEE 1080 FF78 'L....x'          MOVEM.L    -$0088(A6),D7/A4
00000050: 4E5E           'N^'              UNLK       A6
00000052: 4E75           'Nu'              RTS        
00000054: 4141           'AA'              DC.W       $4141               ; ????
00000056: 504C           'PL'              ADDQ.W     #8,A4
00000058: 2C43           ',C'              MOVEA.L    D3,A6
0000005A: 6F64           'od'              BLE.S      *+$0066             ; 000000C0
0000005C: 6552           'eR'              BCS.S      *+$0054             ; 000000B0
0000005E: 6567           'eg'              BCS.S      *+$0069             ; 000000C7
00000060: 6973           'is'              BVS.S      *+$0075             ; 000000D5
00000062: 7465           'te'              MOVEQ      #$65,D2             ; 'e'
00000064: 7200           'r.'              MOVEQ      #$00,D1
00000066: 4465           'De'              NEG.W      -(A5)
00000068: 7669           'vi'              MOVEQ      #$69,D3             ; 'i'
0000006A: 6365           'ce'              BLS.S      *+$0067             ; 000000D1
0000006C: 733A           's:'              DC.W       $733A               ; ????
0000006E: 6465           'de'              BCC.S      *+$0067             ; 000000D5
00000070: 7669           'vi'              MOVEQ      #$69,D3             ; 'i'
00000072: 6365           'ce'              BLS.S      *+$0067             ; 000000D9
00000074: 2D74 7265 653A '-tree:'          MOVE.L     $65(A4,D7.W*2),$653A(A6)
0000007A: 0000 7065      '..pe'            ORI.B      #$65,D0             ; 'e'
0000007E: 662C           'f,'              BNE.S      *+$002E             ; 000000AC
00000080: 4141           'AA'              DC.W       $4141               ; ????
00000082: 504C           'PL'              ADDQ.W     #8,A4
00000084: 2C4D           ',M'              MOVEA.L    A5,A6
00000086: 6163           'ac'              BSR.S      *+$0065             ; 000000EB
00000088: 4F53           'OS'              DC.W       $4F53               ; ????
0000008A: 2C50           ',P'              MOVEA.L    (A0),A6
0000008C: 6F77           'ow'              BLE.S      *+$0079             ; 00000105
0000008E: 6572           'er'              BCS.S      *+$0074             ; 00000102
00000090: 5043           'PC'              ADDQ.W     #8,D3
00000092: 2C72           ',r'              DC.W       $2C72               ; ????
00000094: 6567           'eg'              BCS.S      *+$0069             ; 000000FD
00000096: 6973           'is'              BVS.S      *+$0075             ; 0000010B
00000098: 7465           'te'              MOVEQ      #$65,D2             ; 'e'
0000009A: 7200           'r.'              MOVEQ      #$00,D1
0000009C: 636F           'co'              BLS.S      *+$0071             ; 0000010D
0000009E: 6465           'de'              BCC.S      *+$0067             ; 00000105
000000A0: 2C41           ',A'              MOVEA.L    D1,A6
000000A2: 4150           'AP'              DC.W       $4150               ; ????
000000A4: 4C2C 4D61 634F 'L,MacO'          MULS.L     $634F(A4),D1:D4
000000AA: 532C 6E61      'S,na'            SUBQ.B     #1,$6E61(A4)
000000AE: 6D65           'me'              BLT.S      *+$0067             ; 00000115
000000B0: 0000 0000      '....'            ORI.B      #$00,D0
000000B4: 0000 0000      '....'            ORI.B      #$00,D0
000000B8: 0000 0000      '....'            ORI.B      #$00,D0
000000BC: 0000 0000      '....'            ORI.B      #$00,D0
000000C0: 4E56 FFD6      'NV..'            LINK.W     A6,#-$002A
000000C4: 48E7 0718      'H...'            MOVEM.L    D5-D7/A3/A4,-(A7)
000000C8: 2C3C FFFF F615 ',<....'          MOVE.L     #$FFFFF615,D6
000000CE: 486E FFEE      'Hn..'            PEA        -$0012(A6)
000000D2: 7000           'p.'              MOVEQ      #$00,D0
000000D4: ABE9           '..'              DC.W       $ABE9               ; TB 03E9
000000D6: 486E FFEA      'Hn..'            PEA        -$0016(A6)
000000DA: 7007           'p.'              MOVEQ      #$07,D0
000000DC: ABE9           '..'              DC.W       $ABE9               ; TB 03E9
000000DE: 422E FFFF      'B...'            CLR.B      -$0001(A6)
000000E2: 504F           'PO'              ADDQ.W     #8,A7
000000E4: 6000 00BA      '`...'            BRA        *+$00BC             ; 000001A0
000000E8: 47FA 0108      'G...'            LEA        *+$010A,A3          ; 000001F2
000000EC: 7009           'p.'              MOVEQ      #$09,D0
000000EE: 2F00           '/.'              MOVE.L     D0,-(A7)
000000F0: 2F0B           '/.'              MOVE.L     A3,-(A7)
000000F2: 487A 00F8      'Hz..'            PEA        *+$00FA             ; 000001EC
000000F6: 486E FFFF      'Hn..'            PEA        -$0001(A6)
000000FA: 486E FFEE      'Hn..'            PEA        -$0012(A6)
000000FE: 7201           'r.'              MOVEQ      #$01,D1
00000100: 2F01           '/.'              MOVE.L     D1,-(A7)
00000102: 486E FFEA      'Hn..'            PEA        -$0016(A6)
00000106: 700B           'p.'              MOVEQ      #$0B,D0
00000108: ABE9           '..'              DC.W       $ABE9               ; TB 03E9
0000010A: 2A00           '*.'              MOVE.L     D0,D5
0000010C: 4FEF 001C      'O...'            LEA        $001C(A7),A7
00000110: 6600 008E      'f...'            BNE        *+$0090             ; 000001A0
00000114: 4A2E FFFF      'J...'            TST.B      -$0001(A6)
00000118: 6600 0086      'f...'            BNE        *+$0088             ; 000001A0
0000011C: 7E00           '~.'              MOVEQ      #$00,D7
0000011E: 7000           'p.'              MOVEQ      #$00,D0
00000120: 2D40 FFE6      '-@..'            MOVE.L     D0,-$001A(A6)
00000124: 4A87           'J.'              TST.L      D7
00000126: 6616           'f.'              BNE.S      *+$0018             ; 0000013E
00000128: 486E FFE6      'Hn..'            PEA        -$001A(A6)
0000012C: 487A 00A4      'Hz..'            PEA        *+$00A6             ; 000001D2
00000130: 486E FFEE      'Hn..'            PEA        -$0012(A6)
00000134: 7016           'p.'              MOVEQ      #$16,D0
00000136: ABE9           '..'              DC.W       $ABE9               ; TB 03E9
00000138: 2E00           '..'              MOVE.L     D0,D7
0000013A: 4FEF 000C      'O...'            LEA        $000C(A7),A7
0000013E: 4A87           'J.'              TST.L      D7
00000140: 6658           'fX'              BNE.S      *+$005A             ; 0000019A
00000142: 202E FFE6      ' ...'            MOVE.L     -$001A(A6),D0
00000146: A51E           '..'              _NewPtrSys                      ; A51E
00000148: 2848           '(H'              MOVEA.L    A0,A4
0000014A: 200C           ' .'              MOVE.L     A4,D0
0000014C: 674C           'gL'              BEQ.S      *+$004E             ; 0000019A
0000014E: 486E FFE6      'Hn..'            PEA        -$001A(A6)
00000152: 2F0C           '/.'              MOVE.L     A4,-(A7)
00000154: 487A 007C      'Hz.|'            PEA        *+$007E             ; 000001D2
00000158: 486E FFEE      'Hn..'            PEA        -$0012(A6)
0000015C: 7017           'p.'              MOVEQ      #$17,D0
0000015E: ABE9           '..'              DC.W       $ABE9               ; TB 03E9
00000160: 2E00           '..'              MOVE.L     D0,D7
00000162: 4FEF 0010      'O...'            LEA        $0010(A7),A7
00000166: 6632           'f2'              BNE.S      *+$0034             ; 0000019A
00000168: 7000           'p.'              MOVEQ      #$00,D0
0000016A: 2D40 FFD6      '-@..'            MOVE.L     D0,-$002A(A6)
0000016E: 2D4C FFDA      '-L..'            MOVE.L     A4,-$0026(A6)
00000172: 2D6E FFE6 FFDE '-n....'          MOVE.L     -$001A(A6),-$0022(A6)
00000178: 426E FFE2      'Bn..'            CLR.W      -$001E(A6)
0000017C: 426E FFE4      'Bn..'            CLR.W      -$001C(A6)
00000180: 558F           'U.'              SUBQ.L     #2,A7
00000182: 486E FFD6      'Hn..'            PEA        -$002A(A6)
00000186: 7000           'p.'              MOVEQ      #$00,D0
00000188: 2F00           '/.'              MOVE.L     D0,-(A7)
0000018A: 487A 003E      'Hz.>'            PEA        *+$0040             ; 000001CA
0000018E: 7200           'r.'              MOVEQ      #$00,D1
00000190: 1F01           '..'              MOVE.B     D1,-(A7)
00000192: 3F3C FFFC      '?<..'            MOVE.W     #$FFFC,-(A7)
00000196: AA5A           '.Z'              _CodeFragmentDispatch                      ; AA5A
00000198: 544F           'TO'              ADDQ.W     #2,A7
0000019A: 4A87           'J.'              TST.L      D7
0000019C: 6602           'f.'              BNE.S      *+$0004             ; 000001A0
0000019E: 7C00           '|.'              MOVEQ      #$00,D6
000001A0: 4A86           'J.'              TST.L      D6
000001A2: 6708           'g.'              BEQ.S      *+$000A             ; 000001AC
000001A4: 4A2E FFFF      'J...'            TST.B      -$0001(A6)
000001A8: 6700 FF3E      'g..>'            BEQ        *-$00C0             ; 000000E8
000001AC: 486E FFEA      'Hn..'            PEA        -$0016(A6)
000001B0: 7008           'p.'              MOVEQ      #$08,D0
000001B2: ABE9           '..'              DC.W       $ABE9               ; TB 03E9
000001B4: 486E FFEE      'Hn..'            PEA        -$0012(A6)
000001B8: 7003           'p.'              MOVEQ      #$03,D0
000001BA: ABE9           '..'              DC.W       $ABE9               ; TB 03E9
000001BC: 3006           '0.'              MOVE.W     D6,D0
000001BE: 504F           'PO'              ADDQ.W     #8,A7
000001C0: 4CEE 18E0 FFC2 'L.....'          MOVEM.L    -$003E(A6),D5-D7/A3/A4
000001C6: 4E5E           'N^'              UNLK       A6
000001C8: 4E75           'Nu'              RTS        
000001CA: 066C 616E 4C69 '.lanLi'          ADDI.W     #$616E,$4C69(A4)    ; 'an'
000001D0: 6200 6C61      'b.la'            BHI        *+$6C63             ; 00006E33
000001D4: 6E4C           'nL'              BGT.S      *+$004E             ; 00000222
000001D6: 6962           'ib'              BVS.S      *+$0064             ; 0000023A
000001D8: 2C41           ',A'              MOVEA.L    D1,A6
000001DA: 4150           'AP'              DC.W       $4150               ; ????
000001DC: 4C2C 4D61 634F 'L,MacO'          MULS.L     $634F(A4),D1:D4
000001E2: 532C 506F      'S,Po'            SUBQ.B     #1,$506F(A4)
000001E6: 7765           'we'              DC.W       $7765               ; ????
000001E8: 7250           'rP'              MOVEQ      #$50,D1             ; 'P'
000001EA: 4300           'C.'              CHK.L      D0,D1
000001EC: 6E61           'na'              BGT.S      *+$0063             ; 0000024F
000001EE: 6D65           'me'              BLT.S      *+$0067             ; 00000255
000001F0: 0000 6574      '..et'            ORI.B      #$74,D0             ; 't'
000001F4: 6865           'he'              BVC.S      *+$0067             ; 0000025B
000001F6: 726E           'rn'              MOVEQ      #$6E,D1             ; 'n'
000001F8: 6574           'et'              BCS.S      *+$0076             ; 0000026E


Reference:           Flags=$18=(16BitPatch 32BitOffsets FromCode) 
                     Ref="strcat"(210)
                      00000036

Reference:           Flags=$18=(16BitPatch 32BitOffsets FromCode) 
                     Ref="strcpy"(204)
                      0000002C

Reference:           Flags=$18=(16BitPatch 32BitOffsets FromCode) 
                     Ref="INTERC_12E0_CODEPREPARE"(205)
                      00000040

Reference:           Flags=$18=(16BitPatch 32BitOffsets FromCode) 
                     Ref="INTERC_14E0"(208)
                      0000001A

EntryPoint:          Flags=$08=(Extern Code)  Offset=$00C0 Entry="INTERC_1750_LANLIB"(212)
Comment:    
    
   INTERC_1690_CODEREGISTER ended due to: ran into next module, 6 nulls trimmed

Comment:    
    
   #####################################################################################
   
   Module: INTERC_1890_INITLANDISK [1890, 190C)
   
   Module started due to: MODGUESS (align, label)
   
   Resolved outgoing references:
      +16 (18A6): JSR INTERC_1750_LANLIB
   
   +0 (1890): LANDISKINIT 


Dictionary:          Flags $00 FirstId 213
                 213: INTERC_1890_INITLANDISK
                 214: LANDISKINIT



Module:              Flags=$88=(ForcedActive Extern Code)  Module="INTERC_1890_INITLANDISK"(213) Segment="Main"(200)
Size:                Flags $00 ModuleSize 124

Content:             Flags $08
Contents offset $0000 size $007C
00000000: 4E56 FEF8      'NV..'            LINK.W     A6,#-$0108
00000004: 48E7 0318      'H...'            MOVEM.L    D6/D7/A3/A4,-(A7)
00000008: A11A           '..'              _GetZone                       ; A11A
0000000A: 2648           '&H'              MOVEA.L    A0,A3
0000000C: 598F           'Y.'              SUBQ.L     #4,A7
0000000E: 2EB8 02A6      '....'            MOVE.L     $02A6,(A7)
00000012: 205F           ' _'              MOVEA.L    (A7)+,A0
00000014: A01B           '..'              _SetZone                       ; A01B
00000016: 4EBA 0000      'N...'            JSR        INTERC_1750_LANLIB  ; id: 212
0000001A: 7001           'p.'              MOVEQ      #$01,D0
0000001C: 1F00           '..'              MOVE.B     D0,-(A7)
0000001E: 70FF           'p.'              MOVEQ      #$FF,D0
00000020: 4A1F           'J.'              TST.B      (A7)+
00000022: 56C0           'V.'              SNE        D0
00000024: 31C0 0B9E      '1...'            MOVE.W     D0,$0B9E
00000028: 598F           'Y.'              SUBQ.L     #4,A7
0000002A: 2F3C 6466 7267 '/<dfrg'          MOVE.L     #$64667267,-(A7)    ; 'dfrg'
00000030: 3F3C AF0E      '?<..'            MOVE.W     #$AF0E,-(A7)
00000034: A9A0           '..'              _GetResource                      ; A9A0
00000036: 285F           '(_'              MOVEA.L    (A7)+,A4
00000038: 200C           ' .'              MOVE.L     A4,D0
0000003A: 672A           'g*'              BEQ.S      *+$002C             ; 00000066
0000003C: 598F           'Y.'              SUBQ.L     #4,A7
0000003E: 2F0C           '/.'              MOVE.L     A4,-(A7)
00000040: A9A5           '..'              _SizeRsrc                      ; A9A5
00000042: 2E1F           '..'              MOVE.L     (A7)+,D7
00000044: 558F           'U.'              SUBQ.L     #2,A7
00000046: 2F14           '/.'              MOVE.L     (A4),-(A7)
00000048: 2F07           '/.'              MOVE.L     D7,-(A7)
0000004A: 487A 0028      'Hz.('            PEA        *+$002A             ; 00000074
0000004E: 7001           'p.'              MOVEQ      #$01,D0
00000050: 2F00           '/.'              MOVE.L     D0,-(A7)
00000052: 486E FEF8      'Hn..'            PEA        -$0108(A6)
00000056: 486E FEFC      'Hn..'            PEA        -$0104(A6)
0000005A: 486E FF00      'Hn..'            PEA        -$0100(A6)
0000005E: 3F3C 0003      '?<..'            MOVE.W     #$0003,-(A7)
00000062: AA5A           '.Z'              _CodeFragmentDispatch                      ; AA5A
00000064: 3C1F           '<.'              MOVE.W     (A7)+,D6
00000066: 204B           ' K'              MOVEA.L    A3,A0
00000068: A01B           '..'              _SetZone                       ; A01B
0000006A: 4CEE 18C0 FEE8 'L.....'          MOVEM.L    -$0118(A6),D6/D7/A3/A4
00000070: 4E5E           'N^'              UNLK       A6
00000072: 4E75           'Nu'              RTS        
00000074: 074C 414E      '.LAN'            MOVEP.L    $414E(A4),D3
00000078: 4469 736B      'Disk'            NEG.W      $736B(A1)


Reference:           Flags=$18=(16BitPatch 32BitOffsets FromCode) 
                     Ref="INTERC_1750_LANLIB"(212)
                      00000018

EntryPoint:          Flags=$08=(Extern Code)  Offset=$0000 Entry="LANDISKINIT"(214)
Comment:    
    
   INTERC_1890_INITLANDISK ended due to: ran into next module, 4 nulls trimmed 

Comment:    
    
   #####################################################################################
   
   Module: INTERC_1910_USBFAMILYEXPERTLIB [1910, 1980)
   
   Module started due to: MODGUESS (align, label)


Dictionary:          Flags $00 FirstId 215
                 215: INTERC_1910_USBFAMILYEXPERTLIB
Pad         



Module:              Flags=$88=(ForcedActive Extern Code)  Module="INTERC_1910_USBFAMILYEXPERTLIB"(215) Segment="Main"(200)
Size:                Flags $00 ModuleSize 112

Content:             Flags $08
Contents offset $0000 size $0070
00000000: 4E56 FEFC      'NV..'            LINK.W     A6,#-$0104
00000004: 48E7 0018      'H...'            MOVEM.L    A3/A4,-(A7)
00000008: A11A           '..'              _GetZone                       ; A11A
0000000A: 2648           '&H'              MOVEA.L    A0,A3
0000000C: 598F           'Y.'              SUBQ.L     #4,A7
0000000E: 2EB8 02A6      '....'            MOVE.L     $02A6,(A7)
00000012: 205F           ' _'              MOVEA.L    (A7)+,A0
00000014: A01B           '..'              _SetZone                       ; A01B
00000016: 7008           'p.'              MOVEQ      #$08,D0
00000018: A51E           '..'              _NewPtrSys                      ; A51E
0000001A: 2848           '(H'              MOVEA.L    A0,A4
0000001C: 200C           ' .'              MOVE.L     A4,D0
0000001E: 672E           'g.'              BEQ.S      *+$0030             ; 0000004E
00000020: 558F           'U.'              SUBQ.L     #2,A7
00000022: 487A 0038      'Hz.8'            PEA        *+$003A             ; 0000005C
00000026: 2F3C 7077 7063 '/<pwpc'          MOVE.L     #$70777063,-(A7)    ; 'pwpc'
0000002C: 7001           'p.'              MOVEQ      #$01,D0
0000002E: 2F00           '/.'              MOVE.L     D0,-(A7)
00000030: 486C 0004      'Hl..'            PEA        $0004(A4)
00000034: 486E FEFC      'Hn..'            PEA        -$0104(A6)
00000038: 486E FF00      'Hn..'            PEA        -$0100(A6)
0000003C: 3F3C 0001      '?<..'            MOVE.W     #$0001,-(A7)
00000040: AA5A           '.Z'              _CodeFragmentDispatch                      ; AA5A
00000042: 4A5F           'J_'              TST.W      (A7)+
00000044: 6608           'f.'              BNE.S      *+$000A             ; 0000004E
00000046: 2078 02B6      ' x..'            MOVEA.L    $02B6,A0
0000004A: 214C 02E6      '!L..'            MOVE.L     A4,$02E6(A0)
0000004E: 204B           ' K'              MOVEA.L    A3,A0
00000050: A01B           '..'              _SetZone                       ; A01B
00000052: 4CEE 1800 FEF4 'L.....'          MOVEM.L    -$010C(A6),A3/A4
00000058: 4E5E           'N^'              UNLK       A6
0000005A: 4E75           'Nu'              RTS        
0000005C: 1255           '.U'              MOVE.B     (A5),A1
0000005E: 5342           'SB'              SUBQ.W     #1,D2
00000060: 4661           'Fa'              NOT.W      -(A1)
00000062: 6D69           'mi'              BLT.S      *+$006B             ; 000000CD
00000064: 6C79           'ly'              BGE.S      *+$007B             ; 000000DF
00000066: 4578           'Ex'              DC.W       $4578               ; ????
00000068: 7065           'pe'              MOVEQ      #$65,D0             ; 'e'
0000006A: 7274           'rt'              MOVEQ      #$74,D1             ; 't'
0000006C: 4C69 6200      'Lib.'            DC.W       $4C69 ,$6200 

Comment:    
    
   INTERC_1910_USBFAMILYEXPERTLIB ended due to: ran into next module 

Comment:    
    
   #####################################################################################
   
   Module: INTERC_1980_DRIVERS [1980, 1C38)
   
   Module started due to: MODGUESS (align, label)
   
   Resolved outgoing references:
      +222 (1BA2): JSR EXPANSIONBUSMGR_VEC0188 ; outside file
      +202 (1B82): JSR EXPANSIONBUSMGR_VEC0178 ; outside file
      +192 (1B12): JSR GETHANDLESIZE ; outside file
      +168 (1AE8): JSR GETPTRSIZE ; outside file
      +1D2 (1B52): JSR EXPANSIONBUSMGR_VEC0170 ; outside file
      +156 (1AD6): JSR EXPANSIONBUSMGR_VEC0170 ; outside file
      +FC (1A7C): JSR DEVICEMGR_608E0 ; outside file
      +B2 (1A32): JSR INTERC_11E0_C2PSTRCPY


Dictionary:          Flags $00 FirstId 216
                 216: INTERC_1980_DRIVERS



Module:              Flags=$88=(ForcedActive Extern Code)  Module="INTERC_1980_DRIVERS"(216) Segment="Main"(200)
Size:                Flags $00 ModuleSize 696

Content:             Flags $08
Contents offset $0000 size $02B8
00000000: 4E56 FF48      'NV.H'            LINK.W     A6,#-$00B8
00000004: 48E7 1F18      'H...'            MOVEM.L    D3-D7/A3/A4,-(A7)
00000008: 486E FFDC      'Hn..'            PEA        -$0024(A6)
0000000C: 7000           'p.'              MOVEQ      #$00,D0
0000000E: ABE9           '..'              DC.W       $ABE9               ; TB 03E9
00000010: 7601           'v.'              MOVEQ      #$01,D3
00000012: 486E FFEC      'Hn..'            PEA        -$0014(A6)
00000016: 7007           'p.'              MOVEQ      #$07,D0
00000018: ABE9           '..'              DC.W       $ABE9               ; TB 03E9
0000001A: 3C00           '<.'              MOVE.W     D0,D6
0000001C: 504F           'PO'              ADDQ.W     #8,A7
0000001E: 6600 0246      'f..F'            BNE        *+$0248             ; 00000266
00000022: 422E FFF5      'B...'            CLR.B      -$000B(A6)
00000026: 486E FFF5      'Hn..'            PEA        -$000B(A6)
0000002A: 486E FFDC      'Hn..'            PEA        -$0024(A6)
0000002E: 2F03           '/.'              MOVE.L     D3,-(A7)
00000030: 486E FFEC      'Hn..'            PEA        -$0014(A6)
00000034: 700A           'p.'              MOVEQ      #$0A,D0
00000036: ABE9           '..'              DC.W       $ABE9               ; TB 03E9
00000038: 3C00           '<.'              MOVE.W     D0,D6
0000003A: 7000           'p.'              MOVEQ      #$00,D0
0000003C: 102E FFF5      '....'            MOVE.B     -$000B(A6),D0
00000040: 4A80           'J.'              TST.L      D0
00000042: 4FEF 0010      'O...'            LEA        $0010(A7),A7
00000046: 6600 0206      'f...'            BNE        *+$0208             ; 0000024E
0000004A: 4A46           'JF'              TST.W      D6
0000004C: 6600 0200      'f...'            BNE        *+$0202             ; 0000024E
00000050: 703F           'p?'              MOVEQ      #$3F,D0             ; '?'
00000052: 2D40 FF4C      '-@.L'            MOVE.L     D0,-$00B4(A6)
00000056: 7E00           '~.'              MOVEQ      #$00,D7
00000058: 600C           '`.'              BRA.S      *+$000E             ; 00000066
0000005A: 41EE FF5C      'A..\'            LEA        -$00A4(A6),A0
0000005E: 4230 7000      'B0p.'            CLR.B      $00(A0,D7.W)
00000062: 2007           ' .'              MOVE.L     D7,D0
00000064: 5287           'R.'              ADDQ.L     #1,D7
00000066: BEAE FF4C      '...L'            CMP.L      -$00B4(A6),D7
0000006A: 65EE           'e.'              BCS.S      *-$0010             ; 0000005A
0000006C: 486E FF4C      'Hn.L'            PEA        -$00B4(A6)
00000070: 486E FF5C      'Hn.\'            PEA        -$00A4(A6)
00000074: 487A 023E      'Hz.>'            PEA        *+$0240             ; 000002B4
00000078: 486E FFDC      'Hn..'            PEA        -$0024(A6)
0000007C: 7017           'p.'              MOVEQ      #$17,D0
0000007E: ABE9           '..'              DC.W       $ABE9               ; TB 03E9
00000080: 3C00           '<.'              MOVE.W     D0,D6
00000082: 4FEF 0010      'O...'            LEA        $0010(A7),A7
00000086: 6600 01CC      'f...'            BNE        *+$01CE             ; 00000254
0000008A: 7000           'p.'              MOVEQ      #$00,D0
0000008C: 2D40 FF50      '-@.P'            MOVE.L     D0,-$00B0(A6)
00000090: 486E FF50      'Hn.P'            PEA        -$00B0(A6)
00000094: 487A 01F2      'Hz..'            PEA        *+$01F4             ; 00000288
00000098: 486E FFDC      'Hn..'            PEA        -$0024(A6)
0000009C: 7016           'p.'              MOVEQ      #$16,D0
0000009E: ABE9           '..'              DC.W       $ABE9               ; TB 03E9
000000A0: 3C00           '<.'              MOVE.W     D0,D6
000000A2: 4FEF 000C      'O...'            LEA        $000C(A7),A7
000000A6: 6700 01AC      'g...'            BEQ        *+$01AE             ; 00000254
000000AA: 486E FF5C      'Hn.\'            PEA        -$00A4(A6)
000000AE: 486E FF9C      'Hn..'            PEA        -$0064(A6)
000000B2: 4EBA 0000      'N...'            JSR        INTERC_11E0_C2PSTRCPY ; id: 201
000000B6: 558F           'U.'              SUBQ.L     #2,A7
000000B8: A994           '..'              _CurResFile                      ; A994
000000BA: 381F           '8.'              MOVE.W     (A7)+,D4
000000BC: 7000           'p.'              MOVEQ      #$00,D0
000000BE: 3F00           '?.'              MOVE.W     D0,-(A7)
000000C0: A998           '..'              _UseResFile                      ; A998
000000C2: 7001           'p.'              MOVEQ      #$01,D0
000000C4: 1F00           '..'              MOVE.B     D0,-(A7)
000000C6: 70FF           'p.'              MOVEQ      #$FF,D0
000000C8: 4A1F           'J.'              TST.B      (A7)+
000000CA: 56C0           'V.'              SNE        D0
000000CC: 31C0 0B9E      '1...'            MOVE.W     D0,$0B9E
000000D0: 598F           'Y.'              SUBQ.L     #4,A7
000000D2: 2F3C 6E64 7276 '/<ndrv'          MOVE.L     #$6E647276,-(A7)    ; 'ndrv'
000000D8: 486E FF9C      'Hn..'            PEA        -$0064(A6)
000000DC: A820           '. '              _Get1NamedResource                      ; A820
000000DE: 285F           '(_'              MOVEA.L    (A7)+,A4
000000E0: 200C           ' .'              MOVE.L     A4,D0
000000E2: 504F           'PO'              ADDQ.W     #8,A7
000000E4: 6664           'fd'              BNE.S      *+$0066             ; 0000014A
000000E6: 7000           'p.'              MOVEQ      #$00,D0
000000E8: 2D40 FF54      '-@.T'            MOVE.L     D0,-$00AC(A6)
000000EC: 2D40 FF58      '-@.X'            MOVE.L     D0,-$00A8(A6)
000000F0: 486E FF58      'Hn.X'            PEA        -$00A8(A6)
000000F4: 486E FF54      'Hn.T'            PEA        -$00AC(A6)
000000F8: 486E FFDC      'Hn..'            PEA        -$0024(A6)
000000FC: 4EBA 0000      'N...'            JSR        DEVICEMGR_608E0     ; id: 222
00000100: 4AAE FF54      'J..T'            TST.L      -$00AC(A6)
00000104: 4FEF 000C      'O...'            LEA        $000C(A7),A7
00000108: 6740           'g@'              BEQ.S      *+$0042             ; 0000014A
0000010A: 266E FF54      '&n.T'            MOVEA.L    -$00AC(A6),A3
0000010E: 6024           '`$'              BRA.S      *+$0026             ; 00000134
00000110: 7001           'p.'              MOVEQ      #$01,D0
00000112: 1F00           '..'              MOVE.B     D0,-(A7)
00000114: 70FF           'p.'              MOVEQ      #$FF,D0
00000116: 4A1F           'J.'              TST.B      (A7)+
00000118: 56C0           'V.'              SNE        D0
0000011A: 31C0 0B9E      '1...'            MOVE.W     D0,$0B9E
0000011E: 598F           'Y.'              SUBQ.L     #4,A7
00000120: 2F3C 6E64 7276 '/<ndrv'          MOVE.L     #$6E647276,-(A7)    ; 'ndrv'
00000126: 2F0B           '/.'              MOVE.L     A3,-(A7)
00000128: A820           '. '              _Get1NamedResource                      ; A820
0000012A: 285F           '(_'              MOVEA.L    (A7)+,A4
0000012C: 7000           'p.'              MOVEQ      #$00,D0
0000012E: 1013           '..'              MOVE.B     (A3),D0
00000130: 5240           'R@'              ADDQ.W     #1,D0
00000132: D6C0           '..'              ADDA.W     D0,A3
00000134: 200C           ' .'              MOVE.L     A4,D0
00000136: 660C           'f.'              BNE.S      *+$000E             ; 00000144
00000138: 202E FF58      ' ..X'            MOVE.L     -$00A8(A6),D0
0000013C: 53AE FF58      'S..X'            SUBQ.L     #1,-$00A8(A6)
00000140: 4A80           'J.'              TST.L      D0
00000142: 66CC           'f.'              BNE.S      *-$0032             ; 00000110
00000144: 206E FF54      ' n.T'            MOVEA.L    -$00AC(A6),A0
00000148: A01F           '..'              _DisposePtr                      ; A01F
0000014A: 200C           ' .'              MOVE.L     A4,D0
0000014C: 6700 00FA      'g...'            BEQ        *+$00FC             ; 00000248
00000150: 486E FF48      'Hn.H'            PEA        -$00B8(A6)
00000154: 2F14           '/.'              MOVE.L     (A4),-(A7)
00000156: 4EBA 0000      'N...'            JSR        EXPANSIONBUSMGR_VEC0170 ; id: 221
0000015A: 3C00           '<.'              MOVE.W     D0,D6
0000015C: 504F           'PO'              ADDQ.W     #8,A7
0000015E: 6600 00E8      'f...'            BNE        *+$00EA             ; 00000248
00000162: 598F           'Y.'              SUBQ.L     #4,A7
00000164: 2F2E FF48      '/..H'            MOVE.L     -$00B8(A6),-(A7)
00000168: 4EBA 0000      'N...'            JSR        GETPTRSIZE          ; id: 220
0000016C: 2F2E FF48      '/..H'            MOVE.L     -$00B8(A6),-(A7)
00000170: 487A 0130      'Hz.0'            PEA        *+$0132             ; 000002A2
00000174: 486E FFDC      'Hn..'            PEA        -$0024(A6)
00000178: 7010           'p.'              MOVEQ      #$10,D0
0000017A: ABE9           '..'              DC.W       $ABE9               ; TB 03E9
0000017C: 3C00           '<.'              MOVE.W     D0,D6
0000017E: 206E FF48      ' n.H'            MOVEA.L    -$00B8(A6),A0
00000182: A01F           '..'              _DisposePtr                      ; A01F
00000184: 4A46           'JF'              TST.W      D6
00000186: 4FEF 0010      'O...'            LEA        $0010(A7),A7
0000018A: 6600 00BC      'f...'            BNE        *+$00BE             ; 00000248
0000018E: 598F           'Y.'              SUBQ.L     #4,A7
00000190: 2F0C           '/.'              MOVE.L     A4,-(A7)
00000192: 4EBA 0000      'N...'            JSR        GETHANDLESIZE       ; id: 219
00000196: 2D57 FF50      '-W.P'            MOVE.L     (A7),-$00B0(A6)
0000019A: 2F14           '/.'              MOVE.L     (A4),-(A7)
0000019C: 487A 00EA      'Hz..'            PEA        *+$00EC             ; 00000288
000001A0: 486E FFDC      'Hn..'            PEA        -$0024(A6)
000001A4: 7010           'p.'              MOVEQ      #$10,D0
000001A6: ABE9           '..'              DC.W       $ABE9               ; TB 03E9
000001A8: 3C00           '<.'              MOVE.W     D0,D6
000001AA: 4FEF 0010      'O...'            LEA        $0010(A7),A7
000001AE: 6600 0098      'f...'            BNE        *+$009A             ; 00000248
000001B2: 7004           'p.'              MOVEQ      #$04,D0
000001B4: 2F00           '/.'              MOVE.L     D0,-(A7)
000001B6: 2F0C           '/.'              MOVE.L     A4,-(A7)
000001B8: 487A 00C2      'Hz..'            PEA        *+$00C4             ; 0000027C
000001BC: 486E FFDC      'Hn..'            PEA        -$0024(A6)
000001C0: 7010           'p.'              MOVEQ      #$10,D0
000001C2: ABE9           '..'              DC.W       $ABE9               ; TB 03E9
000001C4: 3C00           '<.'              MOVE.W     D0,D6
000001C6: 4FEF 0010      'O...'            LEA        $0010(A7),A7
000001CA: 667C           'f|'              BNE.S      *+$007E             ; 00000248
000001CC: 486E FF48      'Hn.H'            PEA        -$00B8(A6)
000001D0: 2F14           '/.'              MOVE.L     (A4),-(A7)
000001D2: 4EBA 0000      'N...'            JSR        EXPANSIONBUSMGR_VEC0170 ; id: 221
000001D6: 3C00           '<.'              MOVE.W     D0,D6
000001D8: 504F           'PO'              ADDQ.W     #8,A7
000001DA: 666C           'fl'              BNE.S      *+$006E             ; 00000248
000001DC: 206E FF48      ' n.H'            MOVEA.L    -$00B8(A6),A0
000001E0: 2A28 002C      '*(.,'            MOVE.L     $002C(A0),D5
000001E4: A01F           '..'              _DisposePtr                      ; A01F
000001E6: 7001           'p.'              MOVEQ      #$01,D0
000001E8: C085           '..'              AND.L      D5,D0
000001EA: 675C           'g\'              BEQ.S      *+$005E             ; 00000248
000001EC: 486E FF48      'Hn.H'            PEA        -$00B8(A6)
000001F0: 486E FFFA      'Hn..'            PEA        -$0006(A6)
000001F4: 486E FFF6      'Hn..'            PEA        -$000A(A6)
000001F8: 486E FF9C      'Hn..'            PEA        -$0064(A6)
000001FC: 2F2E FF50      '/..P'            MOVE.L     -$00B0(A6),-(A7)
00000200: 2F14           '/.'              MOVE.L     (A4),-(A7)
00000202: 4EBA 0000      'N...'            JSR        EXPANSIONBUSMGR_VEC0178 ; id: 218
00000206: 3C00           '<.'              MOVE.W     D0,D6
00000208: 4FEF 0018      'O...'            LEA        $0018(A7),A7
0000020C: 663A           'f:'              BNE.S      *+$003C             ; 00000248
0000020E: 486E FFFE      'Hn..'            PEA        -$0002(A6)
00000212: 4878 03FF      'Hx..'            PEA        $03FF
00000216: 7030           'p0'              MOVEQ      #$30,D0             ; '0'
00000218: 2F00           '/.'              MOVE.L     D0,-(A7)
0000021A: 486E FFDC      'Hn..'            PEA        -$0024(A6)
0000021E: 2F2E FFF6      '/...'            MOVE.L     -$000A(A6),-(A7)
00000222: 4EBA 0000      'N...'            JSR        EXPANSIONBUSMGR_VEC0188 ; id: 217
00000226: 3C00           '<.'              MOVE.W     D0,D6
00000228: 4FEF 0014      'O...'            LEA        $0014(A7),A7
0000022C: 661A           'f.'              BNE.S      *+$001C             ; 00000248
0000022E: 7002           'p.'              MOVEQ      #$02,D0
00000230: 2F00           '/.'              MOVE.L     D0,-(A7)
00000232: 486E FFFE      'Hn..'            PEA        -$0002(A6)
00000236: 487A 0038      'Hz.8'            PEA        *+$003A             ; 00000270
0000023A: 486E FFDC      'Hn..'            PEA        -$0024(A6)
0000023E: 7010           'p.'              MOVEQ      #$10,D0
00000240: ABE9           '..'              DC.W       $ABE9               ; TB 03E9
00000242: 3C00           '<.'              MOVE.W     D0,D6
00000244: 4FEF 0010      'O...'            LEA        $0010(A7),A7
00000248: 3F04           '?.'              MOVE.W     D4,-(A7)
0000024A: A998           '..'              _UseResFile                      ; A998
0000024C: 6006           '`.'              BRA.S      *+$0008             ; 00000254
0000024E: 1D7C 0001 FFF5 '.|....'          MOVE.B     #$01,-$000B(A6)
00000254: 4A2E FFF5      'J...'            TST.B      -$000B(A6)
00000258: 6700 FDCC      'g...'            BEQ        *-$0232             ; 00000026
0000025C: 486E FFEC      'Hn..'            PEA        -$0014(A6)
00000260: 7008           'p.'              MOVEQ      #$08,D0
00000262: ABE9           '..'              DC.W       $ABE9               ; TB 03E9
00000264: 584F           'XO'              ADDQ.W     #4,A7
00000266: 4CEE 18F8 FF2C 'L....,'          MOVEM.L    -$00D4(A6),D3-D7/A3/A4
0000026C: 4E5E           'N^'              UNLK       A6
0000026E: 4E75           'Nu'              RTS        
00000270: 6472           'dr'              BCC.S      *+$0074             ; 000002E4
00000272: 6976           'iv'              BVS.S      *+$0078             ; 000002EA
00000274: 6572           'er'              BCS.S      *+$0074             ; 000002E8
00000276: 2D72           '-r'              DC.W       $2D72               ; ????
00000278: 6566           'ef'              BCS.S      *+$0068             ; 000002E0
0000027A: 0000 6472      '..dr'            ORI.B      #$72,D0             ; 'r'
0000027E: 6976           'iv'              BVS.S      *+$0078             ; 000002F6
00000280: 6572           'er'              BCS.S      *+$0074             ; 000002F4
00000282: 2D70 7472 0000 '-ptr..'          MOVE.L     $72(A0,D7.W*4),$0000(A6)
00000288: 6472           'dr'              BCC.S      *+$0074             ; 000002FC
0000028A: 6976           'iv'              BVS.S      *+$0078             ; 00000302
0000028C: 6572           'er'              BCS.S      *+$0074             ; 00000300
0000028E: 2C41           ',A'              MOVEA.L    D1,A6
00000290: 4150           'AP'              DC.W       $4150               ; ????
00000292: 4C2C 4D61 634F 'L,MacO'          MULS.L     $634F(A4),D1:D4
00000298: 532C 506F      'S,Po'            SUBQ.B     #1,$506F(A4)
0000029C: 7765           'we'              DC.W       $7765               ; ????
0000029E: 7250           'rP'              MOVEQ      #$50,D1             ; 'P'
000002A0: 4300           'C.'              CHK.L      D0,D1
000002A2: 6472           'dr'              BCC.S      *+$0074             ; 00000316
000002A4: 6976           'iv'              BVS.S      *+$0078             ; 0000031C
000002A6: 6572           'er'              BCS.S      *+$0074             ; 0000031A
000002A8: 2D64 6573      '-des'            MOVE.L     -(A4),$6573(A6)
000002AC: 6372           'cr'              BLS.S      *+$0074             ; 00000320
000002AE: 6970           'ip'              BVS.S      *+$0072             ; 00000320
000002B0: 746F           'to'              MOVEQ      #$6F,D2             ; 'o'
000002B2: 7200           'r.'              MOVEQ      #$00,D1
000002B4: 6E61           'na'              BGT.S      *+$0063             ; 00000317
000002B6: 6D65           'me'              BLT.S      *+$0067             ; 0000031D


Dictionary:          Flags $00 FirstId 217
                 217: EXPANSIONBUSMGR_VEC0188

Reference:           Flags=$18=(16BitPatch 32BitOffsets FromCode) 
                     Ref="EXPANSIONBUSMGR_VEC0188"(217)
                      00000224

Dictionary:          Flags $00 FirstId 218
                 218: EXPANSIONBUSMGR_VEC0178

Reference:           Flags=$18=(16BitPatch 32BitOffsets FromCode) 
                     Ref="EXPANSIONBUSMGR_VEC0178"(218)
                      00000204

Dictionary:          Flags $00 FirstId 219
                 219: GETHANDLESIZE

Reference:           Flags=$18=(16BitPatch 32BitOffsets FromCode) 
                     Ref="GETHANDLESIZE"(219)
                      00000194

Dictionary:          Flags $00 FirstId 220
                 220: GETPTRSIZE
Pad         

Reference:           Flags=$18=(16BitPatch 32BitOffsets FromCode) 
                     Ref="GETPTRSIZE"(220)
                      0000016A

Dictionary:          Flags $00 FirstId 221
                 221: EXPANSIONBUSMGR_VEC0170

Reference:           Flags=$18=(16BitPatch 32BitOffsets FromCode) 
                     Ref="EXPANSIONBUSMGR_VEC0170"(221)
                      000001D4

Reference:           Flags=$18=(16BitPatch 32BitOffsets FromCode) 
                     Ref="EXPANSIONBUSMGR_VEC0170"(221)
                      00000158

Dictionary:          Flags $00 FirstId 222
                 222: DEVICEMGR_608E0

Reference:           Flags=$18=(16BitPatch 32BitOffsets FromCode) 
                     Ref="DEVICEMGR_608E0"(222)
                      000000FE

Reference:           Flags=$18=(16BitPatch 32BitOffsets FromCode) 
                     Ref="INTERC_11E0_C2PSTRCPY"(201)
                      000000B4
Comment:    
    
   INTERC_1980_DRIVERS ended due to: BRA.L island below, 8 nulls trimmed 

Comment:    
    
   #####################################################################################
   
   Module: INTERC_1CA0_INCREMENTSTRUCTFIELD [1CA0, 1CBE)
   
   Module started due to: island above, MODGUESS (align, label, BRA.L then padding)


Dictionary:          Flags $00 FirstId 223
                 223: INTERC_1CA0_INCREMENTSTRUCTFIELD
Pad         



Module:              Flags=$88=(ForcedActive Extern Code)  Module="INTERC_1CA0_INCREMENTSTRUCTFIELD"(223) Segment="Main"(200)
Size:                Flags $00 ModuleSize 30

Content:             Flags $08
Contents offset $0000 size $001E
00000000: 4E56 0000      'NV..'            LINK.W     A6,#$0000
00000004: 2F0B           '/.'              MOVE.L     A3,-(A7)
00000006: 266E 0008      '&n..'            MOVEA.L    $0008(A6),A3
0000000A: 2253           '"S'              MOVEA.L    (A3),A1
0000000C: 2009           ' .'              MOVE.L     A1,D0
0000000E: 6706           'g.'              BEQ.S      *+$0008             ; 00000016
00000010: D3EE 000C      '....'            ADDA.L     $000C(A6),A1
00000014: 2689           '&.'              MOVE.L     A1,(A3)
00000016: 266E FFFC      '&n..'            MOVEA.L    -$0004(A6),A3
0000001A: 4E5E           'N^'              UNLK       A6
0000001C: 4E75           'Nu'              RTS        

Comment:    
    
   INTERC_1CA0_INCREMENTSTRUCTFIELD ended due to: ran into next module, 2 nulls trimmed

Comment:    
    
   #####################################################################################
   
   Module: INTERC_1CC0_MOVEUNIVINFOTOSYSHEAP [1CC0, 1DA2)
   
   Module started due to: MODGUESS (align, label, RTS then padding)
   
   Resolved outgoing references:
      +CC (1D8C): JSR INTERC_1CA0_INCREMENTSTRUCTFIELD
      +C2 (1D82): JSR INTERC_1CA0_INCREMENTSTRUCTFIELD
      +B8 (1D78): JSR INTERC_1CA0_INCREMENTSTRUCTFIELD
      +AE (1D6E): JSR INTERC_1CA0_INCREMENTSTRUCTFIELD
      +A4 (1D64): JSR INTERC_1CA0_INCREMENTSTRUCTFIELD
      +9A (1D5A): JSR INTERC_1CA0_INCREMENTSTRUCTFIELD
      +90 (1D50): JSR INTERC_1CA0_INCREMENTSTRUCTFIELD
      +86 (1D46): JSR INTERC_1CA0_INCREMENTSTRUCTFIELD
      +7C (1D3C): JSR INTERC_1CA0_INCREMENTSTRUCTFIELD
      +72 (1D32): JSR INTERC_1CA0_INCREMENTSTRUCTFIELD
      +68 (1D28): JSR INTERC_1CA0_INCREMENTSTRUCTFIELD
      +5E (1D1E): JSR INTERC_1CA0_INCREMENTSTRUCTFIELD


Dictionary:          Flags $00 FirstId 224
                 224: INTERC_1CC0_MOVEUNIVINFOTOSYSHEAP



Module:              Flags=$88=(ForcedActive Extern Code)  Module="INTERC_1CC0_MOVEUNIVINFOTOSYSHEAP"(224) Segment="Main"(200)
Size:                Flags $00 ModuleSize 226

Content:             Flags $08
Contents offset $0000 size $00E2
00000000: 4E56 FFF8      'NV..'            LINK.W     A6,#-$0008
00000004: 48E7 0738      'H..8'            MOVEM.L    D5-D7/A2-A4,-(A7)
00000008: 2038 2400      ' 8$.'            MOVE.L     $2400,D0
0000000C: C0BC 4000 0000 '..@...'          AND.L      #$40000000,D0
00000012: 6700 00C4      'g...'            BEQ        *+$00C6             ; 000000D8
00000016: 2C3C 0000 0228 ',<...('          MOVE.L     #$00000228,D6
0000001C: 2006           ' .'              MOVE.L     D6,D0
0000001E: A51E           '..'              _NewPtrSys                      ; A51E
00000020: 2648           '&H'              MOVEA.L    A0,A3
00000022: 200B           ' .'              MOVE.L     A3,D0
00000024: 6700 00B2      'g...'            BEQ        *+$00B4             ; 000000D8
00000028: 2E0B           '..'              MOVE.L     A3,D7
0000002A: 2007           ' .'              MOVE.L     D7,D0
0000002C: 5680           'V.'              ADDQ.L     #3,D0
0000002E: 72FC           'r.'              MOVEQ      #$FC,D1
00000030: C280           '..'              AND.L      D0,D1
00000032: 2E01           '..'              MOVE.L     D1,D7
00000034: 2A07           '*.'              MOVE.L     D7,D5
00000036: 2645           '&E'              MOVEA.L    D5,A3
00000038: 2845           '(E'              MOVEA.L    D5,A4
0000003A: 0687 0000 0218 '......'          ADDI.L     #$00000218,D7
00000040: 2D47 FFF8      '-G..'            MOVE.L     D7,-$0008(A6)
00000044: 2C07           ',.'              MOVE.L     D7,D6
00000046: 9C8B           '..'              SUB.L      A3,D6
00000048: 2478 0DD8      '$x..'            MOVEA.L    $0DD8,A2
0000004C: 204A           ' J'              MOVEA.L    A2,A0
0000004E: 224C           '"L'              MOVEA.L    A4,A1
00000050: 2006           ' .'              MOVE.L     D6,D0
00000052: A22E           '..'              _BlockMoveData                      ; A22E
00000054: 264A           '&J'              MOVEA.L    A2,A3
00000056: 97CC           '..'              SUBA.L     A4,A3
00000058: 2F0B           '/.'              MOVE.L     A3,-(A7)
0000005A: 486C 0004      'Hl..'            PEA        $0004(A4)
0000005E: 4EBA 0000      'N...'            JSR        INTERC_1CA0_INCREMENTSTRUCTFIELD ; id: 223
00000062: 2F0B           '/.'              MOVE.L     A3,-(A7)
00000064: 486C 0008      'Hl..'            PEA        $0008(A4)
00000068: 4EBA 0000      'N...'            JSR        INTERC_1CA0_INCREMENTSTRUCTFIELD ; id: 223
0000006C: 2F0B           '/.'              MOVE.L     A3,-(A7)
0000006E: 486C 000C      'Hl..'            PEA        $000C(A4)
00000072: 4EBA 0000      'N...'            JSR        INTERC_1CA0_INCREMENTSTRUCTFIELD ; id: 223
00000076: 2F0B           '/.'              MOVE.L     A3,-(A7)
00000078: 486C 0038      'Hl.8'            PEA        $0038(A4)
0000007C: 4EBA 0000      'N...'            JSR        INTERC_1CA0_INCREMENTSTRUCTFIELD ; id: 223
00000080: 2F0B           '/.'              MOVE.L     A3,-(A7)
00000082: 486C 003C      'Hl.<'            PEA        $003C(A4)
00000086: 4EBA 0000      'N...'            JSR        INTERC_1CA0_INCREMENTSTRUCTFIELD ; id: 223
0000008A: 2F0B           '/.'              MOVE.L     A3,-(A7)
0000008C: 486C 0040      'Hl.@'            PEA        $0040(A4)
00000090: 4EBA 0000      'N...'            JSR        INTERC_1CA0_INCREMENTSTRUCTFIELD ; id: 223
00000094: 2F0B           '/.'              MOVE.L     A3,-(A7)
00000096: 486C 0044      'Hl.D'            PEA        $0044(A4)
0000009A: 4EBA 0000      'N...'            JSR        INTERC_1CA0_INCREMENTSTRUCTFIELD ; id: 223
0000009E: 2F0B           '/.'              MOVE.L     A3,-(A7)
000000A0: 486C 0048      'Hl.H'            PEA        $0048(A4)
000000A4: 4EBA 0000      'N...'            JSR        INTERC_1CA0_INCREMENTSTRUCTFIELD ; id: 223
000000A8: 2F0B           '/.'              MOVE.L     A3,-(A7)
000000AA: 486C 004C      'Hl.L'            PEA        $004C(A4)
000000AE: 4EBA 0000      'N...'            JSR        INTERC_1CA0_INCREMENTSTRUCTFIELD ; id: 223
000000B2: 2F0B           '/.'              MOVE.L     A3,-(A7)
000000B4: 486C 0050      'Hl.P'            PEA        $0050(A4)
000000B8: 4EBA 0000      'N...'            JSR        INTERC_1CA0_INCREMENTSTRUCTFIELD ; id: 223
000000BC: 2F0B           '/.'              MOVE.L     A3,-(A7)
000000BE: 486C 0064      'Hl.d'            PEA        $0064(A4)
000000C2: 4EBA 0000      'N...'            JSR        INTERC_1CA0_INCREMENTSTRUCTFIELD ; id: 223
000000C6: 2F0B           '/.'              MOVE.L     A3,-(A7)
000000C8: 486C 005C      'Hl.\'            PEA        $005C(A4)
000000CC: 4EBA 0000      'N...'            JSR        INTERC_1CA0_INCREMENTSTRUCTFIELD ; id: 223
000000D0: 21CC 0DD8      '!...'            MOVE.L     A4,$0DD8
000000D4: 4FEF 0060      'O..`'            LEA        $0060(A7),A7
000000D8: 4CEE 1CE0 FFE0 'L.....'          MOVEM.L    -$0020(A6),D5-D7/A2-A4
000000DE: 4E5E           'N^'              UNLK       A6
000000E0: 4E75           'Nu'              RTS        


Reference:           Flags=$18=(16BitPatch 32BitOffsets FromCode) 
                     Ref="INTERC_1CA0_INCREMENTSTRUCTFIELD"(223)
                      000000CE

Reference:           Flags=$18=(16BitPatch 32BitOffsets FromCode) 
                     Ref="INTERC_1CA0_INCREMENTSTRUCTFIELD"(223)
                      000000C4

Reference:           Flags=$18=(16BitPatch 32BitOffsets FromCode) 
                     Ref="INTERC_1CA0_INCREMENTSTRUCTFIELD"(223)
                      000000BA

Reference:           Flags=$18=(16BitPatch 32BitOffsets FromCode) 
                     Ref="INTERC_1CA0_INCREMENTSTRUCTFIELD"(223)
                      000000B0

Reference:           Flags=$18=(16BitPatch 32BitOffsets FromCode) 
                     Ref="INTERC_1CA0_INCREMENTSTRUCTFIELD"(223)
                      000000A6

Reference:           Flags=$18=(16BitPatch 32BitOffsets FromCode) 
                     Ref="INTERC_1CA0_INCREMENTSTRUCTFIELD"(223)
                      0000009C

Reference:           Flags=$18=(16BitPatch 32BitOffsets FromCode) 
                     Ref="INTERC_1CA0_INCREMENTSTRUCTFIELD"(223)
                      00000092

Reference:           Flags=$18=(16BitPatch 32BitOffsets FromCode) 
                     Ref="INTERC_1CA0_INCREMENTSTRUCTFIELD"(223)
                      00000088

Reference:           Flags=$18=(16BitPatch 32BitOffsets FromCode) 
                     Ref="INTERC_1CA0_INCREMENTSTRUCTFIELD"(223)
                      0000007E

Reference:           Flags=$18=(16BitPatch 32BitOffsets FromCode) 
                     Ref="INTERC_1CA0_INCREMENTSTRUCTFIELD"(223)
                      00000074

Reference:           Flags=$18=(16BitPatch 32BitOffsets FromCode) 
                     Ref="INTERC_1CA0_INCREMENTSTRUCTFIELD"(223)
                      0000006A

Reference:           Flags=$18=(16BitPatch 32BitOffsets FromCode) 
                     Ref="INTERC_1CA0_INCREMENTSTRUCTFIELD"(223)
                      00000060
Comment:    
    
   INTERC_1CC0_MOVEUNIVINFOTOSYSHEAP ended due to: ran into next module, 14 nulls trimmed

Comment:    
    
   #####################################################################################
   
   Module: INTERC_1DB0 [1DB0, 1DD2)
   
   Module started due to: MODGUESS (align, label, RTS then padding) 


Dictionary:          Flags $00 FirstId 225
                 225: INTERC_1DB0



Module:              Flags=$88=(ForcedActive Extern Code)  Module="INTERC_1DB0"(225) Segment="Main"(200)
Size:                Flags $00 ModuleSize 34

Content:             Flags $08
Contents offset $0000 size $0022
00000000: 4E56 0000      'NV..'            LINK.W     A6,#$0000
00000004: 226E 0008      '"n..'            MOVEA.L    $0008(A6),A1
00000008: 32BC 0001      '2...'            MOVE.W     #$0001,(A1)
0000000C: 4269 0002      'Bi..'            CLR.W      $0002(A1)
00000010: 7000           'p.'              MOVEQ      #$00,D0
00000012: 2340 0004      '#@..'            MOVE.L     D0,$0004(A1)
00000016: 2340 0008      '#@..'            MOVE.L     D0,$0008(A1)
0000001A: 2340 000C      '#@..'            MOVE.L     D0,$000C(A1)
0000001E: 4E5E           'N^'              UNLK       A6
00000020: 4E75           'Nu'              RTS        

Comment:    
    
   INTERC_1DB0 ended due to: ran into next module, 14 nulls trimmed

Comment:    
    
   #####################################################################################
   
   Module: INTERC_1DE0 [1DE0, 1E1E)
   
   Module started due to: MODGUESS (align, label, RTS then padding)
   
   Resolved outgoing references:
      +E (1DEE): JSR INTERC_1DB0 


Dictionary:          Flags $00 FirstId 226
                 226: INTERC_1DE0



Module:              Flags=$88=(ForcedActive Extern Code)  Module="INTERC_1DE0"(226) Segment="Main"(200)
Size:                Flags $00 ModuleSize 62

Content:             Flags $08
Contents offset $0000 size $003E
00000000: 4E56 FFCE      'NV..'            LINK.W     A6,#-$0032
00000004: 48E7 0108      'H...'            MOVEM.L    D7/A4,-(A7)
00000008: 286E 000C      '(n..'            MOVEA.L    $000C(A6),A4
0000000C: 2F0C           '/.'              MOVE.L     A4,-(A7)
0000000E: 4EBA 0000      'N...'            JSR        INTERC_1DB0         ; id: 225
00000012: 7000           'p.'              MOVEQ      #$00,D0
00000014: 2D40 FFE0      '-@..'            MOVE.L     D0,-$0020(A6)
00000018: 206E 0008      ' n..'            MOVEA.L    $0008(A6),A0
0000001C: 2050           ' P'              MOVEA.L    (A0),A0
0000001E: 3D50 FFE6      '=P..'            MOVE.W     (A0),-$001A(A6)
00000022: 3D7C 000C FFE8 '=|....'          MOVE.W     #$000C,-$0018(A6)
00000028: 2D4C FFEA      '-L..'            MOVE.L     A4,-$0016(A6)
0000002C: 41EE FFCE      'A...'            LEA        -$0032(A6),A0
00000030: A005           '..'              _Status                        ; A005
00000032: 3E00           '>.'              MOVE.W     D0,D7
00000034: 4CEE 1080 FFC6 'L.....'          MOVEM.L    -$003A(A6),D7/A4
0000003A: 4E5E           'N^'              UNLK       A6
0000003C: 4E75           'Nu'              RTS        


Reference:           Flags=$18=(16BitPatch 32BitOffsets FromCode) 
                     Ref="INTERC_1DB0"(225)
                      00000010
Comment:    
    
   INTERC_1DE0 ended due to: ran into next module, 2 nulls trimmed 

Comment:    
    
   #####################################################################################
   
   Module: INTERC_1E20 [1E20, 1E82)
   
   Module started due to: MODGUESS (align, label, RTS then padding) 


Dictionary:          Flags $00 FirstId 227
                 227: INTERC_1E20



Module:              Flags=$88=(ForcedActive Extern Code)  Module="INTERC_1E20"(227) Segment="Main"(200)
Size:                Flags $00 ModuleSize 98

Content:             Flags $08
Contents offset $0000 size $0062
00000000: 4E56 FFCE      'NV..'            LINK.W     A6,#-$0032
00000004: 48E7 0118      'H...'            MOVEM.L    D7/A3/A4,-(A7)
00000008: 266E 0008      '&n..'            MOVEA.L    $0008(A6),A3
0000000C: 286E 000C      '(n..'            MOVEA.L    $000C(A6),A4
00000010: 7ECE           '~.'              MOVEQ      #$CE,D7
00000012: 200B           ' .'              MOVE.L     A3,D0
00000014: 6740           'g@'              BEQ.S      *+$0042             ; 00000056
00000016: 200C           ' .'              MOVE.L     A4,D0
00000018: 673C           'g<'              BEQ.S      *+$003E             ; 00000056
0000001A: 426C 0004      'Bl..'            CLR.W      $0004(A4)
0000001E: 426C 0006      'Bl..'            CLR.W      $0006(A4)
00000022: 7000           'p.'              MOVEQ      #$00,D0
00000024: 2940 0008      ')@..'            MOVE.L     D0,$0008(A4)
00000028: 2940 000C      ')@..'            MOVE.L     D0,$000C(A4)
0000002C: 2940 0010      ')@..'            MOVE.L     D0,$0010(A4)
00000030: 2D40 FFE0      '-@..'            MOVE.L     D0,-$0020(A6)
00000034: 2053           ' S'              MOVEA.L    (A3),A0
00000036: 3D50 FFE6      '=P..'            MOVE.W     (A0),-$001A(A6)
0000003A: 3D7C 001C FFE8 '=|....'          MOVE.W     #$001C,-$0018(A6)
00000040: 2D4C FFEA      '-L..'            MOVE.L     A4,-$0016(A6)
00000044: 41EE FFCE      'A...'            LEA        -$0032(A6),A0
00000048: A005           '..'              _Status                        ; A005
0000004A: 3E00           '>.'              MOVE.W     D0,D7
0000004C: 6608           'f.'              BNE.S      *+$000A             ; 00000056
0000004E: 70FF           'p.'              MOVEQ      #$FF,D0
00000050: B094           '..'              CMP.L      (A4),D0
00000052: 6602           'f.'              BNE.S      *+$0004             ; 00000056
00000054: 7EEE           '~.'              MOVEQ      #$EE,D7
00000056: 3007           '0.'              MOVE.W     D7,D0
00000058: 4CEE 1880 FFC2 'L.....'          MOVEM.L    -$003E(A6),D7/A3/A4
0000005E: 4E5E           'N^'              UNLK       A6
00000060: 4E75           'Nu'              RTS        

Comment:    
    
   INTERC_1E20 ended due to: ran into next module, 14 nulls trimmed

Comment:    
    
   #####################################################################################
   
   Module: INTERC_1E90 [1E90, 1F38)
   
   Module started due to: MODGUESS (align, label, RTS then padding)
   
   Resolved outgoing references:
      +40 (1ED0): JSR INTERC_1E20
      +22 (1EB2): JSR INTERC_1E20


Dictionary:          Flags $00 FirstId 228
                 228: INTERC_1E90



Module:              Flags=$88=(ForcedActive Extern Code)  Module="INTERC_1E90"(228) Segment="Main"(200)
Size:                Flags $00 ModuleSize 168

Content:             Flags $08
Contents offset $0000 size $00A8
00000000: 4E56 FFEC      'NV..'            LINK.W     A6,#-$0014
00000004: 48E7 0338      'H..8'            MOVEM.L    D6/D7/A2-A4,-(A7)
00000008: 246E 0010      '$n..'            MOVEA.L    $0010(A6),A2
0000000C: 266E 000C      '&n..'            MOVEA.L    $000C(A6),A3
00000010: 286E 0008      '(n..'            MOVEA.L    $0008(A6),A4
00000014: 4207           'B.'              CLR.B      D7
00000016: 70FF           'p.'              MOVEQ      #$FF,D0
00000018: 2D40 FFEC      '-@..'            MOVE.L     D0,-$0014(A6)
0000001C: 486E FFEC      'Hn..'            PEA        -$0014(A6)
00000020: 2F0C           '/.'              MOVE.L     A4,-(A7)
00000022: 4EBA 0000      'N...'            JSR        INTERC_1E20         ; id: 227
00000026: 4A40           'J@'              TST.W      D0
00000028: 504F           'PO'              ADDQ.W     #8,A7
0000002A: 6670           'fp'              BNE.S      *+$0072             ; 0000009C
0000002C: 2C2E FFEC      ',...'            MOVE.L     -$0014(A6),D6
00000030: 6062           '`b'              BRA.S      *+$0064             ; 00000094
00000032: 2006           ' .'              MOVE.L     D6,D0
00000034: 5386           'S.'              SUBQ.L     #1,D6
00000036: 2D40 FFEC      '-@..'            MOVE.L     D0,-$0014(A6)
0000003A: 486E FFEC      'Hn..'            PEA        -$0014(A6)
0000003E: 2F0C           '/.'              MOVE.L     A4,-(A7)
00000040: 4EBA 0000      'N...'            JSR        INTERC_1E20         ; id: 227
00000044: 4A40           'J@'              TST.W      D0
00000046: 504F           'PO'              ADDQ.W     #8,A7
00000048: 664A           'fJ'              BNE.S      *+$004C             ; 00000094
0000004A: 7000           'p.'              MOVEQ      #$00,D0
0000004C: 302E FFF0      '0...'            MOVE.W     -$0010(A6),D0
00000050: 7202           'r.'              MOVEQ      #$02,D1
00000052: B280           '..'              CMP.L      D0,D1
00000054: 6718           'g.'              BEQ.S      *+$001A             ; 0000006E
00000056: 7000           'p.'              MOVEQ      #$00,D0
00000058: 302E FFF0      '0...'            MOVE.W     -$0010(A6),D0
0000005C: 720E           'r.'              MOVEQ      #$0E,D1
0000005E: B280           '..'              CMP.L      D0,D1
00000060: 670C           'g.'              BEQ.S      *+$000E             ; 0000006E
00000062: 7000           'p.'              MOVEQ      #$00,D0
00000064: 302E FFF0      '0...'            MOVE.W     -$0010(A6),D0
00000068: 7214           'r.'              MOVEQ      #$14,D1
0000006A: B280           '..'              CMP.L      D0,D1
0000006C: 6626           'f&'              BNE.S      *+$0028             ; 00000094
0000006E: 7E01           '~.'              MOVEQ      #$01,D7
00000070: 7000           'p.'              MOVEQ      #$00,D0
00000072: 102E FFF2      '....'            MOVE.B     -$000E(A6),D0
00000076: 3680           '6.'              MOVE.W     D0,(A3)
00000078: 7000           'p.'              MOVEQ      #$00,D0
0000007A: 102E FFF3      '....'            MOVE.B     -$000D(A6),D0
0000007E: 3480           '4.'              MOVE.W     D0,(A2)
00000080: 203C 0000 0200 ' <....'          MOVE.L     #$00000200,D0
00000086: C0AE FFF4      '....'            AND.L      -$000C(A6),D0
0000008A: 6608           'f.'              BNE.S      *+$000A             ; 00000094
0000008C: 206E 0014      ' n..'            MOVEA.L    $0014(A6),A0
00000090: 10BC 0001      '....'            MOVE.B     #$01,(A0)
00000094: 4A86           'J.'              TST.L      D6
00000096: 6304           'c.'              BLS.S      *+$0006             ; 0000009C
00000098: 4A07           'J.'              TST.B      D7
0000009A: 6796           'g.'              BEQ.S      *-$0068             ; 00000032
0000009C: 1007           '..'              MOVE.B     D7,D0
0000009E: 4CEE 1CC0 FFD8 'L.....'          MOVEM.L    -$0028(A6),D6/D7/A2-A4
000000A4: 4E5E           'N^'              UNLK       A6
000000A6: 4E75           'Nu'              RTS        


Reference:           Flags=$18=(16BitPatch 32BitOffsets FromCode) 
                     Ref="INTERC_1E20"(227)
                      00000042

Reference:           Flags=$18=(16BitPatch 32BitOffsets FromCode) 
                     Ref="INTERC_1E20"(227)
                      00000024
Comment:    
    
   INTERC_1E90 ended due to: ran into next module, 8 nulls trimmed 

Comment:    
    
   #####################################################################################
   
   Module: INTERC_1F40_BACKLIGHT [1F40, 207A)
   
   Module started due to: MODGUESS (align, label, RTS then padding)
   
   Resolved outgoing references:
      +1A (1F5A): JSR OPENDRIVER ; outside file
      +AC (1FEC): JSR INTERC_1E90
      +44 (1F84): JSR INTERC_1DE0


Dictionary:          Flags $00 FirstId 229
                 229: INTERC_1F40_BACKLIGHT



Module:              Flags=$88=(ForcedActive Extern Code)  Module="INTERC_1F40_BACKLIGHT"(229) Segment="Main"(200)
Size:                Flags $00 ModuleSize 314

Content:             Flags $08
Contents offset $0000 size $013A
00000000: 4E56 FFB2      'NV..'            LINK.W     A6,#-$004E
00000004: 48E7 0118      'H...'            MOVEM.L    D7/A3/A4,-(A7)
00000008: 7000           'p.'              MOVEQ      #$00,D0
0000000A: 2640           '&@'              MOVEA.L    D0,A3
0000000C: 42AE FFFA      'B...'            CLR.L      -$0006(A6)
00000010: 558F           'U.'              SUBQ.L     #2,A7
00000012: 487A 011A      'Hz..'            PEA        *+$011C             ; 0000012E
00000016: 486E FFF8      'Hn..'            PEA        -$0008(A6)
0000001A: 4EBA 0000      'N...'            JSR        OPENDRIVER          ; id: 230
0000001E: 4A5F           'J_'              TST.W      (A7)+
00000020: 6600 0102      'f...'            BNE        *+$0104             ; 00000124
00000024: 203C 6D61 6368 ' <mach'          MOVE.L     #$6D616368,D0       ; 'mach'
0000002A: 41EE FFE4      'A...'            LEA        -$001C(A6),A0
0000002E: 2248           '"H'              MOVEA.L    A0,A1
00000030: A1AD           '..'              _Gestalt                       ; A1AD
00000032: 2288           '".'              MOVE.L     A0,(A1)
00000034: 598F           'Y.'              SUBQ.L     #4,A7
00000036: AA29           '.)'              _GetDeviceList                      ; AA29
00000038: 285F           '(_'              MOVEA.L    (A7)+,A4
0000003A: 6000 00DE      '`...'            BRA        *+$00E0             ; 0000011A
0000003E: 486E FFE8      'Hn..'            PEA        -$0018(A6)
00000042: 2F0C           '/.'              MOVE.L     A4,-(A7)
00000044: 4EBA 0000      'N...'            JSR        INTERC_1DE0         ; id: 226
00000048: 3E00           '>.'              MOVE.W     D0,D7
0000004A: 504F           'PO'              ADDQ.W     #8,A7
0000004C: 666C           'fl'              BNE.S      *+$006E             ; 000000BA
0000004E: 7000           'p.'              MOVEQ      #$00,D0
00000050: 302E FFE8      '0...'            MOVE.W     -$0018(A6),D0
00000054: 7202           'r.'              MOVEQ      #$02,D1
00000056: B280           '..'              CMP.L      D0,D1
00000058: 6718           'g.'              BEQ.S      *+$001A             ; 00000072
0000005A: 7000           'p.'              MOVEQ      #$00,D0
0000005C: 302E FFE8      '0...'            MOVE.W     -$0018(A6),D0
00000060: 720E           'r.'              MOVEQ      #$0E,D1
00000062: B280           '..'              CMP.L      D0,D1
00000064: 670C           'g.'              BEQ.S      *+$000E             ; 00000072
00000066: 7000           'p.'              MOVEQ      #$00,D0
00000068: 302E FFE8      '0...'            MOVE.W     -$0018(A6),D0
0000006C: 7214           'r.'              MOVEQ      #$14,D1
0000006E: B280           '..'              CMP.L      D0,D1
00000070: 6628           'f('              BNE.S      *+$002A             ; 0000009A
00000072: 203C 0000 0800 ' <....'          MOVE.L     #$00000800,D0
00000078: C0AE FFEC      '....'            AND.L      -$0014(A6),D0
0000007C: 671C           'g.'              BEQ.S      *+$001E             ; 0000009A
0000007E: 264C           '&L'              MOVEA.L    A4,A3
00000080: 1D7C 0001 FFFF '.|....'          MOVE.B     #$01,-$0001(A6)
00000086: 7000           'p.'              MOVEQ      #$00,D0
00000088: 102E FFEA      '....'            MOVE.B     -$0016(A6),D0
0000008C: 3D40 FFFA      '=@..'            MOVE.W     D0,-$0006(A6)
00000090: 7000           'p.'              MOVEQ      #$00,D0
00000092: 102E FFEB      '....'            MOVE.B     -$0015(A6),D0
00000096: 3D40 FFFC      '=@..'            MOVE.W     D0,-$0004(A6)
0000009A: 200B           ' .'              MOVE.L     A3,D0
0000009C: 661C           'f.'              BNE.S      *+$001E             ; 000000BA
0000009E: 486E FFFF      'Hn..'            PEA        -$0001(A6)
000000A2: 486E FFFC      'Hn..'            PEA        -$0004(A6)
000000A6: 486E FFFA      'Hn..'            PEA        -$0006(A6)
000000AA: 2F0C           '/.'              MOVE.L     A4,-(A7)
000000AC: 4EBA 0000      'N...'            JSR        INTERC_1E90         ; id: 228
000000B0: 4A00           'J.'              TST.B      D0
000000B2: 4FEF 0010      'O...'            LEA        $0010(A7),A7
000000B6: 6702           'g.'              BEQ.S      *+$0004             ; 000000BA
000000B8: 264C           '&L'              MOVEA.L    A4,A3
000000BA: 200B           ' .'              MOVE.L     A3,D0
000000BC: 6754           'gT'              BEQ.S      *+$0056             ; 00000112
000000BE: 7000           'p.'              MOVEQ      #$00,D0
000000C0: 2D40 FFC4      '-@..'            MOVE.L     D0,-$003C(A6)
000000C4: 3D6E FFF8 FFCA '=n....'          MOVE.W     -$0008(A6),-$0036(A6)
000000CA: 3D7C 430B FFCC '=|C...'          MOVE.W     #$430B,-$0034(A6)
000000D0: 3D6E FFFA FFCE '=n....'          MOVE.W     -$0006(A6),-$0032(A6)
000000D6: 3D6E FFFC FFD0 '=n....'          MOVE.W     -$0004(A6),-$0030(A6)
000000DC: 2D6E FFE4 FFD2 '-n....'          MOVE.L     -$001C(A6),-$002E(A6)
000000E2: 41EE FFB2      'A...'            LEA        -$004E(A6),A0
000000E6: A004           '..'              _Control                       ; A004
000000E8: 3E00           '>.'              MOVE.W     D0,D7
000000EA: 4A2E FFFF      'J...'            TST.B      -$0001(A6)
000000EE: 6734           'g4'              BEQ.S      *+$0036             ; 00000124
000000F0: 7000           'p.'              MOVEQ      #$00,D0
000000F2: 2D40 FFC4      '-@..'            MOVE.L     D0,-$003C(A6)
000000F6: 3D6E FFF8 FFCA '=n....'          MOVE.W     -$0008(A6),-$0036(A6)
000000FC: 3D7C 430A FFCC '=|C...'          MOVE.W     #$430A,-$0034(A6)
00000102: 3D7C 0007 FFCE '=|....'          MOVE.W     #$0007,-$0032(A6)
00000108: 41EE FFB2      'A...'            LEA        -$004E(A6),A0
0000010C: A004           '..'              _Control                       ; A004
0000010E: 3E00           '>.'              MOVE.W     D0,D7
00000110: 6012           '`.'              BRA.S      *+$0014             ; 00000124
00000112: 598F           'Y.'              SUBQ.L     #4,A7
00000114: 2F0C           '/.'              MOVE.L     A4,-(A7)
00000116: AA2B           '.+'              _GetNextDevice                      ; AA2B
00000118: 285F           '(_'              MOVEA.L    (A7)+,A4
0000011A: 200C           ' .'              MOVE.L     A4,D0
0000011C: 6706           'g.'              BEQ.S      *+$0008             ; 00000124
0000011E: 200B           ' .'              MOVE.L     A3,D0
00000120: 6700 FF1C      'g...'            BEQ        *-$00E2             ; 0000003E
00000124: 4CEE 1880 FFA6 'L.....'          MOVEM.L    -$005A(A6),D7/A3/A4
0000012A: 4E5E           'N^'              UNLK       A6
0000012C: 4E75           'Nu'              RTS        
0000012E: 0A2E 4261 636B '..Back'          EORI.B     #$61,$636B(A6)      ; 'a'
00000134: 6C69           'li'              BGE.S      *+$006B             ; 0000019F
00000136: 6768           'gh'              BEQ.S      *+$006A             ; 000001A0
00000138: 7400           't.'              MOVEQ      #$00,D2


Dictionary:          Flags $00 FirstId 230
                 230: OPENDRIVER
Pad         

Reference:           Flags=$18=(16BitPatch 32BitOffsets FromCode) 
                     Ref="OPENDRIVER"(230)
                      0000001C

Reference:           Flags=$18=(16BitPatch 32BitOffsets FromCode) 
                     Ref="INTERC_1E90"(228)
                      000000AE

Reference:           Flags=$18=(16BitPatch 32BitOffsets FromCode) 
                     Ref="INTERC_1DE0"(226)
                      00000046
Comment:    
    
   INTERC_1F40_BACKLIGHT ended due to: BRA.L island below, 6 nulls trimmed 

Comment:    
    
   #####################################################################################
   
   Module: INTERC_2090_POWERMGR [2090, 224A)
   
   Module started due to: island above, MODGUESS (align, label, BRA.L then padding)
   
   Resolved outgoing references:
      +188 (2218): JSR INTERC_2250
      +180 (2210): PEA INTERC_2320
      +16C (21FC): JSR INTERC_24C0
      +154 (21E4): JSR INTERC_24C0
      +140 (21D0): JSR INTERC_2250
      +138 (21C8): PEA INTERC_2380
      +124 (21B4): JSR INTERC_24C0
      +10C (219C): JSR INTERC_24C0
      +FC (218C): JSR INTERC_2250
      +F6 (2186): PEA INTERC_23E0
      +E8 (2178): JSR INTERC_2250
      +E0 (2170): PEA INTERC_2440
      +CE (215E): JSR INTERC_24C0
   
   Unresolved outgoing references:
      +19C (222C): BSR $8B92 ; bad outside file
   
   +A0 (2130): INTERC_2130_CARDBUS 


Dictionary:          Flags $00 FirstId 231
                 231: INTERC_2090_POWERMGR
                 232: INTERC_2130_CARDBUS
Pad         



Module:              Flags=$88=(ForcedActive Extern Code)  Module="INTERC_2090_POWERMGR"(231) Segment="Main"(200)
Size:                Flags $00 ModuleSize 442

Content:             Flags $08
Contents offset $0000 size $01BA
00000000: 4E56 FEF2      'NV..'            LINK.W     A6,#-$010E
00000004: 48E7 0118      'H...'            MOVEM.L    D7/A3/A4,-(A7)
00000008: 47EE FEFA      'G...'            LEA        -$0106(A6),A3
0000000C: A11A           '..'              _GetZone                       ; A11A
0000000E: 2848           '(H'              MOVEA.L    A0,A4
00000010: 598F           'Y.'              SUBQ.L     #4,A7
00000012: 2EB8 02A6      '....'            MOVE.L     $02A6,(A7)
00000016: 205F           ' _'              MOVEA.L    (A7)+,A0
00000018: A01B           '..'              _SetZone                       ; A01B
0000001A: 558F           'U.'              SUBQ.L     #2,A7
0000001C: 487A 0060      'Hz.`'            PEA        *+$0062             ; 0000007E
00000020: 2F3C 7077 7063 '/<pwpc'          MOVE.L     #$70777063,-(A7)    ; 'pwpc'
00000026: 7001           'p.'              MOVEQ      #$01,D0
00000028: 2F00           '/.'              MOVE.L     D0,-(A7)
0000002A: 486E FEF2      'Hn..'            PEA        -$010E(A6)
0000002E: 486E FEF6      'Hn..'            PEA        -$010A(A6)
00000032: 2F0B           '/.'              MOVE.L     A3,-(A7)
00000034: 3F3C 0001      '?<..'            MOVE.W     #$0001,-(A7)
00000038: AA5A           '.Z'              _CodeFragmentDispatch                      ; AA5A
0000003A: 3E1F           '>.'              MOVE.W     (A7)+,D7
0000003C: 661A           'f.'              BNE.S      *+$001C             ; 00000058
0000003E: 558F           'U.'              SUBQ.L     #2,A7
00000040: 2F2E FEF2      '/...'            MOVE.L     -$010E(A6),-(A7)
00000044: 487A 002A      'Hz.*'            PEA        *+$002C             ; 00000070
00000048: 486E FFFA      'Hn..'            PEA        -$0006(A6)
0000004C: 486E FFFF      'Hn..'            PEA        -$0001(A6)
00000050: 3F3C 0005      '?<..'            MOVE.W     #$0005,-(A7)
00000054: AA5A           '.Z'              _CodeFragmentDispatch                      ; AA5A
00000056: 3E1F           '>.'              MOVE.W     (A7)+,D7
00000058: 4A47           'JG'              TST.W      D7
0000005A: 6606           'f.'              BNE.S      *+$0008             ; 00000062
0000005C: 206E FFFA      ' n..'            MOVEA.L    -$0006(A6),A0
00000060: 4E90           'N.'              JSR        (A0)
00000062: 204C           ' L'              MOVEA.L    A4,A0
00000064: A01B           '..'              _SetZone                       ; A01B
00000066: 4CEE 1880 FEE6 'L.....'          MOVEM.L    -$011A(A6),D7/A3/A4
0000006C: 4E5E           'N^'              UNLK       A6
0000006E: 4E75           'Nu'              RTS        
00000070: 0C50 4D49      '.PMI'            CMPI.W     #$4D49,(A0)         ; 'MI'
00000074: 6E69           'ni'              BGT.S      *+$006B             ; 000000DF
00000076: 7469           'ti'              MOVEQ      #$69,D2             ; 'i'
00000078: 616C           'al'              BSR.S      *+$006E             ; 000000E6
0000007A: 697A           'iz'              BVS.S      *+$007C             ; 000000F6
0000007C: 6500 114E      'e..N'            BCS        *+$1150             ; 000011CC
00000080: 6174           'at'              BSR.S      *+$0076             ; 000000F6
00000082: 6976           'iv'              BVS.S      *+$0078             ; 000000FA
00000084: 6550           'eP'              BCS.S      *+$0052             ; 000000D6
00000086: 6F77           'ow'              BLE.S      *+$0079             ; 000000FF
00000088: 6572           'er'              BCS.S      *+$0074             ; 000000FC
0000008A: 4D67           'Mg'              DC.W       $4D67               ; ????
0000008C: 724C           'rL'              MOVEQ      #$4C,D1             ; 'L'
0000008E: 6962           'ib'              BVS.S      *+$0064             ; 000000F2
00000090: 0000 0000      '....'            ORI.B      #$00,D0
00000094: 0000 0000      '....'            ORI.B      #$00,D0
00000098: 0000 0000      '....'            ORI.B      #$00,D0
0000009C: 0000 0000      '....'            ORI.B      #$00,D0
000000A0: 4E56 FFEC      'NV..'            LINK.W     A6,#-$0014
000000A4: 48E7 0108      'H...'            MOVEM.L    D7/A4,-(A7)
000000A8: 49EE FFFC      'I...'            LEA        -$0004(A6),A4
000000AC: 41FA 010A      'A...'            LEA        *+$010C,A0          ; 000001B8
000000B0: 43D4           'C.'              LEA        (A4),A1
000000B2: 32D8           '2.'              MOVE.W     (A0)+,(A1)+
000000B4: 1290           '..'              MOVE.B     (A0),(A1)
000000B6: 203C 0100 0000 ' <....'          MOVE.L     #$01000000,D0
000000BC: C0B8 0DD0      '....'            AND.L      $0DD0,D0
000000C0: 672E           'g.'              BEQ.S      *+$0030             ; 000000F0
000000C2: 486E FFEC      'Hn..'            PEA        -$0014(A6)
000000C6: 7005           'p.'              MOVEQ      #$05,D0
000000C8: 2F00           '/.'              MOVE.L     D0,-(A7)
000000CA: 487A 00E6      'Hz..'            PEA        *+$00E8             ; 000001B2
000000CE: 4EBA 0000      'N...'            JSR        INTERC_24C0         ; id: 235
000000D2: 1E00           '..'              MOVE.B     D0,D7
000000D4: 4FEF 000C      'O...'            LEA        $000C(A7),A7
000000D8: 6716           'g.'              BEQ.S      *+$0018             ; 000000F0
000000DA: 7000           'p.'              MOVEQ      #$00,D0
000000DC: 2F00           '/.'              MOVE.L     D0,-(A7)
000000DE: 2F00           '/.'              MOVE.L     D0,-(A7)
000000E0: 487A 0000      'Hz..'            PEA        INTERC_2440         ; id: 238
000000E4: 486E FFEC      'Hn..'            PEA        -$0014(A6)
000000E8: 4EBA 0000      'N...'            JSR        INTERC_2250         ; id: 233
000000EC: 4FEF 0010      'O...'            LEA        $0010(A7),A7
000000F0: 2F0C           '/.'              MOVE.L     A4,-(A7)
000000F2: 7000           'p.'              MOVEQ      #$00,D0
000000F4: 2F00           '/.'              MOVE.L     D0,-(A7)
000000F6: 487A 0000      'Hz..'            PEA        INTERC_23E0         ; id: 237
000000FA: 2F00           '/.'              MOVE.L     D0,-(A7)
000000FC: 4EBA 0000      'N...'            JSR        INTERC_2250         ; id: 233
00000100: 486E FFEC      'Hn..'            PEA        -$0014(A6)
00000104: 7008           'p.'              MOVEQ      #$08,D0
00000106: 2F00           '/.'              MOVE.L     D0,-(A7)
00000108: 487A 00A0      'Hz..'            PEA        *+$00A2             ; 000001AA
0000010C: 4EBA 0000      'N...'            JSR        INTERC_24C0         ; id: 235
00000110: 1E00           '..'              MOVE.B     D0,D7
00000112: 4FEF 001C      'O...'            LEA        $001C(A7),A7
00000116: 6616           'f.'              BNE.S      *+$0018             ; 0000012E
00000118: 486E FFEC      'Hn..'            PEA        -$0014(A6)
0000011C: 7007           'p.'              MOVEQ      #$07,D0
0000011E: 2F00           '/.'              MOVE.L     D0,-(A7)
00000120: 487A 0080      'Hz..'            PEA        *+$0082             ; 000001A2
00000124: 4EBA 0000      'N...'            JSR        INTERC_24C0         ; id: 235
00000128: 1E00           '..'              MOVE.B     D0,D7
0000012A: 4FEF 000C      'O...'            LEA        $000C(A7),A7
0000012E: 4A07           'J.'              TST.B      D7
00000130: 6716           'g.'              BEQ.S      *+$0018             ; 00000148
00000132: 7000           'p.'              MOVEQ      #$00,D0
00000134: 2F00           '/.'              MOVE.L     D0,-(A7)
00000136: 2F00           '/.'              MOVE.L     D0,-(A7)
00000138: 487A 0000      'Hz..'            PEA        INTERC_2380         ; id: 236
0000013C: 486E FFEC      'Hn..'            PEA        -$0014(A6)
00000140: 4EBA 0000      'N...'            JSR        INTERC_2250         ; id: 233
00000144: 4FEF 0010      'O...'            LEA        $0010(A7),A7
00000148: 486E FFEC      'Hn..'            PEA        -$0014(A6)
0000014C: 7004           'p.'              MOVEQ      #$04,D0
0000014E: 2F00           '/.'              MOVE.L     D0,-(A7)
00000150: 487A 004C      'Hz.L'            PEA        *+$004E             ; 0000019E
00000154: 4EBA 0000      'N...'            JSR        INTERC_24C0         ; id: 235
00000158: 1E00           '..'              MOVE.B     D0,D7
0000015A: 4FEF 000C      'O...'            LEA        $000C(A7),A7
0000015E: 6616           'f.'              BNE.S      *+$0018             ; 00000176
00000160: 486E FFEC      'Hn..'            PEA        -$0014(A6)
00000164: 7004           'p.'              MOVEQ      #$04,D0
00000166: 2F00           '/.'              MOVE.L     D0,-(A7)
00000168: 487A 0030      'Hz.0'            PEA        *+$0032             ; 0000019A
0000016C: 4EBA 0000      'N...'            JSR        INTERC_24C0         ; id: 235
00000170: 1E00           '..'              MOVE.B     D0,D7
00000172: 4FEF 000C      'O...'            LEA        $000C(A7),A7
00000176: 4A07           'J.'              TST.B      D7
00000178: 6716           'g.'              BEQ.S      *+$0018             ; 00000190
0000017A: 7000           'p.'              MOVEQ      #$00,D0
0000017C: 2F00           '/.'              MOVE.L     D0,-(A7)
0000017E: 2F00           '/.'              MOVE.L     D0,-(A7)
00000180: 487A 0000      'Hz..'            PEA        INTERC_2320         ; id: 234
00000184: 486E FFEC      'Hn..'            PEA        -$0014(A6)
00000188: 4EBA 0000      'N...'            JSR        INTERC_2250         ; id: 233
0000018C: 4FEF 0010      'O...'            LEA        $0010(A7),A7
00000190: 4CEE 1080 FFE4 'L.....'          MOVEM.L    -$001C(A6),D7/A4
00000196: 4E5E           'N^'              UNLK       A6
00000198: 4E75           'Nu'              RTS        
0000019A: 6174           'at'              BSR.S      *+$0076             ; 00000210
0000019C: 6100 6964      'a.id'            BSR        *+$6966             ; 00006B02
000001A0: 6500 7063      'e.pc'            BCS        *+$7065             ; 00007205
000001A4: 6361           'ca'              BLS.S      *+$0063             ; 00000207
000001A6: 7264           'rd'              MOVEQ      #$64,D1             ; 'd'
000001A8: 0000 6361      '..ca'            ORI.B      #$61,D0             ; 'a'
000001AC: 7264           'rd'              MOVEQ      #$64,D1             ; 'd'
000001AE: 6275           'bu'              BHI.S      *+$0077             ; 00000225
000001B0: 7300           's.'              DC.W       $7300               ; ????
000001B2: 7363           'sc'              DC.W       $7363               ; ????
000001B4: 7369           'si'              DC.W       $7369               ; ????
000001B6: 0000 6864      '..hd'            ORI.B      #$64,D0             ; 'd'


Dictionary:          Flags $00 FirstId 233
                 233: INTERC_2250

Reference:           Flags=$18=(16BitPatch 32BitOffsets FromCode) 
                     Ref="INTERC_2250"(233)
                      0000018A

Dictionary:          Flags $00 FirstId 234
                 234: INTERC_2320

Reference:           Flags=$18=(16BitPatch 32BitOffsets FromCode) 
                     Ref="INTERC_2320"(234)
                      00000182

Dictionary:          Flags $00 FirstId 235
                 235: INTERC_24C0

Reference:           Flags=$18=(16BitPatch 32BitOffsets FromCode) 
                     Ref="INTERC_24C0"(235)
                      0000016E

Reference:           Flags=$18=(16BitPatch 32BitOffsets FromCode) 
                     Ref="INTERC_24C0"(235)
                      00000156

Reference:           Flags=$18=(16BitPatch 32BitOffsets FromCode) 
                     Ref="INTERC_2250"(233)
                      00000142

Dictionary:          Flags $00 FirstId 236
                 236: INTERC_2380

Reference:           Flags=$18=(16BitPatch 32BitOffsets FromCode) 
                     Ref="INTERC_2380"(236)
                      0000013A

Reference:           Flags=$18=(16BitPatch 32BitOffsets FromCode) 
                     Ref="INTERC_24C0"(235)
                      00000126

Reference:           Flags=$18=(16BitPatch 32BitOffsets FromCode) 
                     Ref="INTERC_24C0"(235)
                      0000010E

Reference:           Flags=$18=(16BitPatch 32BitOffsets FromCode) 
                     Ref="INTERC_2250"(233)
                      000000FE

Dictionary:          Flags $00 FirstId 237
                 237: INTERC_23E0

Reference:           Flags=$18=(16BitPatch 32BitOffsets FromCode) 
                     Ref="INTERC_23E0"(237)
                      000000F8

Reference:           Flags=$18=(16BitPatch 32BitOffsets FromCode) 
                     Ref="INTERC_2250"(233)
                      000000EA

Dictionary:          Flags $00 FirstId 238
                 238: INTERC_2440

Reference:           Flags=$18=(16BitPatch 32BitOffsets FromCode) 
                     Ref="INTERC_2440"(238)
                      000000E2

Reference:           Flags=$18=(16BitPatch 32BitOffsets FromCode) 
                     Ref="INTERC_24C0"(235)
                      000000D0

EntryPoint:          Flags=$08=(Extern Code)  Offset=$00A0 Entry="INTERC_2130_CARDBUS"(232)
Comment:    
    
   INTERC_2090_POWERMGR ended due to: ran into next module, 6 nulls trimmed

Comment:    
    
   #####################################################################################
   
   Module: INTERC_2250 [2250, 2314)
   
   Module started due to: MODGUESS (align, label)
   
   Resolved outgoing references:
      +98 (22E8): JSR strcpy ; outside file
      +88 (22D8): JSR strcpy ; outside file


Dictionary:          Flags $00 FirstId 239
                 239: INTERC_2250



Module:              Flags=$88=(ForcedActive Extern Code)  Module="INTERC_2250"(239) Segment="Main"(200)
Size:                Flags $00 ModuleSize 196

Content:             Flags $08
Contents offset $0000 size $00C4
00000000: 4E56 FF9C      'NV..'            LINK.W     A6,#-$0064
00000004: 48E7 0118      'H...'            MOVEM.L    D7/A3/A4,-(A7)
00000008: 266E 0014      '&n..'            MOVEA.L    $0014(A6),A3
0000000C: 286E 0008      '(n..'            MOVEA.L    $0008(A6),A4
00000010: 41FA 00AA      'A...'            LEA        *+$00AC,A0          ; 000000BC
00000014: 43EE FFF8      'C...'            LEA        -$0008(A6),A1
00000018: 22D8           '".'              MOVE.L     (A0)+,(A1)+
0000001A: 22D8           '".'              MOVE.L     (A0)+,(A1)+
0000001C: 7000           'p.'              MOVEQ      #$00,D0
0000001E: 2D40 FFA4      '-@..'            MOVE.L     D0,-$005C(A6)
00000022: 2D6E 000C FFA0 '-n....'          MOVE.L     $000C(A6),-$0060(A6)
00000028: 2D40 FFAC      '-@..'            MOVE.L     D0,-$0054(A6)
0000002C: 2D6E 0010 FFA8 '-n....'          MOVE.L     $0010(A6),-$0058(A6)
00000032: 220C           '".'              MOVE.L     A4,D1
00000034: 673C           'g<'              BEQ.S      *+$003E             ; 00000072
00000036: 486E FFB0      'Hn..'            PEA        -$0050(A6)
0000003A: 2F0C           '/.'              MOVE.L     A4,-(A7)
0000003C: 7002           'p.'              MOVEQ      #$02,D0
0000003E: ABE9           '..'              DC.W       $ABE9               ; TB 03E9
00000040: 2E00           '..'              MOVE.L     D0,D7
00000042: 486E FFF4      'Hn..'            PEA        -$000C(A6)
00000046: 487A 0068      'Hz.h'            PEA        *+$006A             ; 000000B0
0000004A: 2F0C           '/.'              MOVE.L     A4,-(A7)
0000004C: 7016           'p.'              MOVEQ      #$16,D0
0000004E: ABE9           '..'              DC.W       $ABE9               ; TB 03E9
00000050: 2E00           '..'              MOVE.L     D0,D7
00000052: 4FEF 0014      'O...'            LEA        $0014(A7),A7
00000056: 6646           'fF'              BNE.S      *+$0048             ; 0000009E
00000058: 486E FFF4      'Hn..'            PEA        -$000C(A6)
0000005C: 486E FFC4      'Hn..'            PEA        -$003C(A6)
00000060: 487A 004E      'Hz.N'            PEA        *+$0050             ; 000000B0
00000064: 2F0C           '/.'              MOVE.L     A4,-(A7)
00000066: 7017           'p.'              MOVEQ      #$17,D0
00000068: ABE9           '..'              DC.W       $ABE9               ; TB 03E9
0000006A: 2E00           '..'              MOVE.L     D0,D7
0000006C: 4FEF 0010      'O...'            LEA        $0010(A7),A7
00000070: 602C           '`,'              BRA.S      *+$002E             ; 0000009E
00000072: 486E FFB0      'Hn..'            PEA        -$0050(A6)
00000076: 7000           'p.'              MOVEQ      #$00,D0
00000078: ABE9           '..'              DC.W       $ABE9               ; TB 03E9
0000007A: 2E00           '..'              MOVE.L     D0,D7
0000007C: 200B           ' .'              MOVE.L     A3,D0
0000007E: 584F           'XO'              ADDQ.W     #4,A7
00000080: 670E           'g.'              BEQ.S      *+$0010             ; 00000090
00000082: 2F0B           '/.'              MOVE.L     A3,-(A7)
00000084: 486E FFC4      'Hn..'            PEA        -$003C(A6)
00000088: 4EBA 0000      'N...'            JSR        strcpy              ; id: 204
0000008C: 504F           'PO'              ADDQ.W     #8,A7
0000008E: 600E           '`.'              BRA.S      *+$0010             ; 0000009E
00000090: 486E FFF8      'Hn..'            PEA        -$0008(A6)
00000094: 486E FFC4      'Hn..'            PEA        -$003C(A6)
00000098: 4EBA 0000      'N...'            JSR        strcpy              ; id: 204
0000009C: 504F           'PO'              ADDQ.W     #8,A7
0000009E: 41EE FF9C      'A...'            LEA        -$0064(A6),A0
000000A2: 7022           'p"'              MOVEQ      #$22,D0             ; '"'
000000A4: A09F           '..'              _PowerDispatch                      ; A09F
000000A6: 4CEE 1880 FF90 'L.....'          MOVEM.L    -$0070(A6),D7/A3/A4
000000AC: 4E5E           'N^'              UNLK       A6
000000AE: 4E75           'Nu'              RTS        
000000B0: 6465 7669 6365 'device'          DC.B       'device_t'          ;MacsBug symbol
             5F74           
000000B8: 7970           'yp'              DC.W       $7970
000000BA: 6500           'e.'              DC.W       $6500
000000BC: 6765           'ge'              DC.W       $6765
000000BE: 6E65           'ne'              DC.W       $6E65
000000C0: 7269           'ri'              DC.W       $7269
000000C2: 6300           'c.'              DC.W       $6300


Reference:           Flags=$18=(16BitPatch 32BitOffsets FromCode) 
                     Ref="strcpy"(204)
                      0000009A

Reference:           Flags=$18=(16BitPatch 32BitOffsets FromCode) 
                     Ref="strcpy"(204)
                      0000008A
Comment:    
    
   INTERC_2250 ended due to: ran into next module, 12 nulls trimmed

Comment:    
    
   #####################################################################################
   
   Module: INTERC_2320 [2320, 2356)
   
   Module started due to: MODGUESS (align, label)
   
   Resolved outgoing references:
      +26 (2346): JSR ATAMGR_5DF30 ; outside file
      +20 (2340): JSR ATAMGR_5DFB0 ; outside file


Dictionary:          Flags $00 FirstId 240
                 240: INTERC_2320



Module:              Flags=$88=(ForcedActive Extern Code)  Module="INTERC_2320"(240) Segment="Main"(200)
Size:                Flags $00 ModuleSize 54

Content:             Flags $08
Contents offset $0000 size $0036
00000000: 4E56 0000      'NV..'            LINK.W     A6,#$0000
00000004: 202E 0014      ' ...'            MOVE.L     $0014(A6),D0
00000008: 5580           'U.'              SUBQ.L     #2,D0
0000000A: 671A           'g.'              BEQ.S      *+$001C             ; 00000026
0000000C: 5380           'S.'              SUBQ.L     #1,D0
0000000E: 6710           'g.'              BEQ.S      *+$0012             ; 00000020
00000010: 0480 0000 000A '......'          SUBI.L     #$0000000A,D0
00000016: 670E           'g.'              BEQ.S      *+$0010             ; 00000026
00000018: 5580           'U.'              SUBQ.L     #2,D0
0000001A: 6704           'g.'              BEQ.S      *+$0006             ; 00000020
0000001C: 5980           'Y.'              SUBQ.L     #4,D0
0000001E: 660A           'f.'              BNE.S      *+$000C             ; 0000002A
00000020: 4EBA 0000      'N...'            JSR        ATAMGR_5DFB0        ; id: 242
00000024: 6004           '`.'              BRA.S      *+$0006             ; 0000002A
00000026: 4EBA 0000      'N...'            JSR        ATAMGR_5DF30        ; id: 241
0000002A: 7000           'p.'              MOVEQ      #$00,D0
0000002C: 2D40 0018      '-@..'            MOVE.L     D0,$0018(A6)
00000030: 4E5E           'N^'              UNLK       A6
00000032: 4E74 0010      'Nt..'            RTD        #$0010


Dictionary:          Flags $00 FirstId 241
                 241: ATAMGR_5DF30
Pad         

Reference:           Flags=$18=(16BitPatch 32BitOffsets FromCode) 
                     Ref="ATAMGR_5DF30"(241)
                      00000028

Dictionary:          Flags $00 FirstId 242
                 242: ATAMGR_5DFB0
Pad         

Reference:           Flags=$18=(16BitPatch 32BitOffsets FromCode) 
                     Ref="ATAMGR_5DFB0"(242)
                      00000022
Comment:    
    
   INTERC_2320 ended due to: BRA.L island below, 10 nulls trimmed

Comment:    
    
   #####################################################################################
   
   Module: INTERC_2380 [2380, 23DA)
   
   Module started due to: island above, MODGUESS (align, label, BRA.L then padding) 


Dictionary:          Flags $00 FirstId 243
                 243: INTERC_2380



Module:              Flags=$88=(ForcedActive Extern Code)  Module="INTERC_2380"(243) Segment="Main"(200)
Size:                Flags $00 ModuleSize 90

Content:             Flags $08
Contents offset $0000 size $005A
00000000: 4E56 0000      'NV..'            LINK.W     A6,#$0000
00000004: 48E7 0108      'H...'            MOVEM.L    D7/A4,-(A7)
00000008: 2E2E 0014      '....'            MOVE.L     $0014(A6),D7
0000000C: 2878 0D18      '(x..'            MOVEA.L    $0D18,A4
00000010: 200C           ' .'              MOVE.L     A4,D0
00000012: 6734           'g4'              BEQ.S      *+$0036             ; 00000048
00000014: 4AAC 02CA      'J...'            TST.L      $02CA(A4)
00000018: 672E           'g.'              BEQ.S      *+$0030             ; 00000048
0000001A: 2007           ' .'              MOVE.L     D7,D0
0000001C: 5580           'U.'              SUBQ.L     #2,D0
0000001E: 671E           'g.'              BEQ.S      *+$0020             ; 0000003E
00000020: 5380           'S.'              SUBQ.L     #1,D0
00000022: 6710           'g.'              BEQ.S      *+$0012             ; 00000034
00000024: 0480 0000 000A '......'          SUBI.L     #$0000000A,D0
0000002A: 6712           'g.'              BEQ.S      *+$0014             ; 0000003E
0000002C: 5580           'U.'              SUBQ.L     #2,D0
0000002E: 6704           'g.'              BEQ.S      *+$0006             ; 00000034
00000030: 5980           'Y.'              SUBQ.L     #4,D0
00000032: 6614           'f.'              BNE.S      *+$0016             ; 00000048
00000034: 3F07           '?.'              MOVE.W     D7,-(A7)
00000036: 206C 02CA      ' l..'            MOVEA.L    $02CA(A4),A0
0000003A: 4E90           'N.'              JSR        (A0)
0000003C: 600A           '`.'              BRA.S      *+$000C             ; 00000048
0000003E: 7006           'p.'              MOVEQ      #$06,D0
00000040: 3F00           '?.'              MOVE.W     D0,-(A7)
00000042: 206C 02CA      ' l..'            MOVEA.L    $02CA(A4),A0
00000046: 4E90           'N.'              JSR        (A0)
00000048: 7000           'p.'              MOVEQ      #$00,D0
0000004A: 2D40 0018      '-@..'            MOVE.L     D0,$0018(A6)
0000004E: 4CEE 1080 FFF8 'L.....'          MOVEM.L    -$0008(A6),D7/A4
00000054: 4E5E           'N^'              UNLK       A6
00000056: 4E74 0010      'Nt..'            RTD        #$0010

Comment:    
    
   INTERC_2380 ended due to: ran into next module, 6 nulls trimmed 

Comment:    
    
   #####################################################################################
   
   Module: INTERC_23E0 [23E0, 243E)
   
   Module started due to: MODGUESS (align, label, RTD then padding) 


Dictionary:          Flags $00 FirstId 244
                 244: INTERC_23E0



Module:              Flags=$88=(ForcedActive Extern Code)  Module="INTERC_23E0"(244) Segment="Main"(200)
Size:                Flags $00 ModuleSize 94

Content:             Flags $08
Contents offset $0000 size $005E
00000000: 4E56 0000      'NV..'            LINK.W     A6,#$0000
00000004: 48E7 0108      'H...'            MOVEM.L    D7/A4,-(A7)
00000008: 2878 0D18      '(x..'            MOVEA.L    $0D18,A4
0000000C: 202E 0014      ' ...'            MOVE.L     $0014(A6),D0
00000010: 5580           'U.'              SUBQ.L     #2,D0
00000012: 6704           'g.'              BEQ.S      *+$0006             ; 00000018
00000014: 5B80           '[.'              SUBQ.L     #5,D0
00000016: 6634           'f4'              BNE.S      *+$0036             ; 0000004C
00000018: 7004           'p.'              MOVEQ      #$04,D0
0000001A: C02C 0054      '.,.T'            AND.B      $0054(A4),D0
0000001E: 7200           'r.'              MOVEQ      #$00,D1
00000020: 1200           '..'              MOVE.B     D0,D1
00000022: 4A81           'J.'              TST.L      D1
00000024: 6726           'g&'              BEQ.S      *+$0028             ; 0000004C
00000026: 7008           'p.'              MOVEQ      #$08,D0
00000028: A09E           '..'              _PowerMgrDispatch                      ; A09E
0000002A: 1E00           '..'              MOVE.B     D0,D7
0000002C: 7000           'p.'              MOVEQ      #$00,D0
0000002E: 4840           'H@'              SWAP       D0
00000030: 303C 0009      '0<..'            MOVE.W     #$0009,D0
00000034: A09E           '..'              _PowerMgrDispatch                      ; A09E
00000036: 4AAC 0016      'J...'            TST.L      $0016(A4)
0000003A: 6706           'g.'              BEQ.S      *+$0008             ; 00000042
0000003C: 206C 0016      ' l..'            MOVEA.L    $0016(A4),A0
00000040: 4E90           'N.'              JSR        (A0)
00000042: 1007           '..'              MOVE.B     D7,D0
00000044: 4840           'H@'              SWAP       D0
00000046: 303C 0009      '0<..'            MOVE.W     #$0009,D0
0000004A: A09E           '..'              _PowerMgrDispatch                      ; A09E
0000004C: 7000           'p.'              MOVEQ      #$00,D0
0000004E: 2D40 0018      '-@..'            MOVE.L     D0,$0018(A6)
00000052: 4CEE 1080 FFF8 'L.....'          MOVEM.L    -$0008(A6),D7/A4
00000058: 4E5E           'N^'              UNLK       A6
0000005A: 4E74 0010      'Nt..'            RTD        #$0010

Comment:    
    
   INTERC_23E0 ended due to: ran into next module, 2 nulls trimmed 

Comment:    
    
   #####################################################################################
   
   Module: INTERC_2440 [2440, 2486)
   
   Module started due to: MODGUESS (align, label, RTD then padding)
   
   Resolved outgoing references:
      +36 (2476): JSR SCSIMGR_1A8C0 ; outside file
      +30 (2470): JSR SCSIMGR_1AB60 ; outside file
      +20 (2460): JSR SCSIMGR_1A910 ; outside file 


Dictionary:          Flags $00 FirstId 245
                 245: INTERC_2440



Module:              Flags=$88=(ForcedActive Extern Code)  Module="INTERC_2440"(245) Segment="Main"(200)
Size:                Flags $00 ModuleSize 70

Content:             Flags $08
Contents offset $0000 size $0046
00000000: 4E56 0000      'NV..'            LINK.W     A6,#$0000
00000004: 202E 0014      ' ...'            MOVE.L     $0014(A6),D0
00000008: 5580           'U.'              SUBQ.L     #2,D0
0000000A: 672A           'g*'              BEQ.S      *+$002C             ; 00000036
0000000C: 5380           'S.'              SUBQ.L     #1,D0
0000000E: 6710           'g.'              BEQ.S      *+$0012             ; 00000020
00000010: 0480 0000 000A '......'          SUBI.L     #$0000000A,D0
00000016: 671E           'g.'              BEQ.S      *+$0020             ; 00000036
00000018: 5580           'U.'              SUBQ.L     #2,D0
0000001A: 6704           'g.'              BEQ.S      *+$0006             ; 00000020
0000001C: 5980           'Y.'              SUBQ.L     #4,D0
0000001E: 661A           'f.'              BNE.S      *+$001C             ; 0000003A
00000020: 4EBA 0000      'N...'            JSR        SCSIMGR_1A910       ; id: 248
00000024: 203C 2000 0000 ' < ...'          MOVE.L     #$20000000,D0
0000002A: C0B8 2408      '..$.'            AND.L      $2408,D0
0000002E: 670A           'g.'              BEQ.S      *+$000C             ; 0000003A
00000030: 4EBA 0000      'N...'            JSR        SCSIMGR_1AB60       ; id: 247
00000034: 6004           '`.'              BRA.S      *+$0006             ; 0000003A
00000036: 4EBA 0000      'N...'            JSR        SCSIMGR_1A8C0       ; id: 246
0000003A: 7000           'p.'              MOVEQ      #$00,D0
0000003C: 2D40 0018      '-@..'            MOVE.L     D0,$0018(A6)
00000040: 4E5E           'N^'              UNLK       A6
00000042: 4E74 0010      'Nt..'            RTD        #$0010


Dictionary:          Flags $00 FirstId 246
                 246: SCSIMGR_1A8C0

Reference:           Flags=$18=(16BitPatch 32BitOffsets FromCode) 
                     Ref="SCSIMGR_1A8C0"(246)
                      00000038

Dictionary:          Flags $00 FirstId 247
                 247: SCSIMGR_1AB60

Reference:           Flags=$18=(16BitPatch 32BitOffsets FromCode) 
                     Ref="SCSIMGR_1AB60"(247)
                      00000032

Dictionary:          Flags $00 FirstId 248
                 248: SCSIMGR_1A910

Reference:           Flags=$18=(16BitPatch 32BitOffsets FromCode) 
                     Ref="SCSIMGR_1A910"(248)
                      00000022
Comment:    
    
   INTERC_2440 ended due to: BRA.L island below, 10 nulls trimmed

Comment:    
    
   #####################################################################################
   
   Module: INTERC_24C0 [24C0, 2554)
   
   Module started due to: island above, MODGUESS (align, label, BRA.L then padding) 


Dictionary:          Flags $00 FirstId 249
                 249: INTERC_24C0



Module:              Flags=$88=(ForcedActive Extern Code)  Module="INTERC_24C0"(249) Segment="Main"(200)
Size:                Flags $00 ModuleSize 148

Content:             Flags $08
Contents offset $0000 size $0094
00000000: 4E56 FFF6      'NV..'            LINK.W     A6,#-$000A
00000004: 48E7 0F38      'H..8'            MOVEM.L    D4-D7/A2-A4,-(A7)
00000008: 382E 000E      '8...'            MOVE.W     $000E(A6),D4
0000000C: 266E 0008      '&n..'            MOVEA.L    $0008(A6),A3
00000010: 286E 0010      '(n..'            MOVEA.L    $0010(A6),A4
00000014: 7E00           '~.'              MOVEQ      #$00,D7
00000016: 422E FFF7      'B...'            CLR.B      -$0009(A6)
0000001A: 4205           'B.'              CLR.B      D5
0000001C: 7C00           '|.'              MOVEQ      #$00,D6
0000001E: 7000           'p.'              MOVEQ      #$00,D0
00000020: 2440           '$@'              MOVEA.L    D0,A2
00000022: 2F0C           '/.'              MOVE.L     A4,-(A7)
00000024: 7000           'p.'              MOVEQ      #$00,D0
00000026: ABE9           '..'              DC.W       $ABE9               ; TB 03E9
00000028: 486E FFF8      'Hn..'            PEA        -$0008(A6)
0000002C: 7007           'p.'              MOVEQ      #$07,D0
0000002E: ABE9           '..'              DC.W       $ABE9               ; TB 03E9
00000030: 2E00           '..'              MOVE.L     D0,D7
00000032: 504F           'PO'              ADDQ.W     #8,A7
00000034: 6646           'fF'              BNE.S      *+$0048             ; 0000007C
00000036: 7C05           '|.'              MOVEQ      #$05,D6
00000038: 48C4           'H.'              EXT.L      D4
0000003A: 2F04           '/.'              MOVE.L     D4,-(A7)
0000003C: 2F0B           '/.'              MOVE.L     A3,-(A7)
0000003E: 487A 0048      'Hz.H'            PEA        *+$004A             ; 00000088
00000042: 486E FFF7      'Hn..'            PEA        -$0009(A6)
00000046: 2F0C           '/.'              MOVE.L     A4,-(A7)
00000048: 2F06           '/.'              MOVE.L     D6,-(A7)
0000004A: 486E FFF8      'Hn..'            PEA        -$0008(A6)
0000004E: 700B           'p.'              MOVEQ      #$0B,D0
00000050: ABE9           '..'              DC.W       $ABE9               ; TB 03E9
00000052: 2E00           '..'              MOVE.L     D0,D7
00000054: 4A2E FFF7      'J...'            TST.B      -$0009(A6)
00000058: 4FEF 001C      'O...'            LEA        $001C(A7),A7
0000005C: 6608           'f.'              BNE.S      *+$000A             ; 00000066
0000005E: 4A87           'J.'              TST.L      D7
00000060: 6604           'f.'              BNE.S      *+$0006             ; 00000066
00000062: 7A01           'z.'              MOVEQ      #$01,D5
00000064: 600C           '`.'              BRA.S      *+$000E             ; 00000072
00000066: 7C01           '|.'              MOVEQ      #$01,D6
00000068: 4A2E FFF7      'J...'            TST.B      -$0009(A6)
0000006C: 6604           'f.'              BNE.S      *+$0006             ; 00000072
0000006E: 4A87           'J.'              TST.L      D7
00000070: 67C6           'g.'              BEQ.S      *-$0038             ; 00000038
00000072: 486E FFF8      'Hn..'            PEA        -$0008(A6)
00000076: 7008           'p.'              MOVEQ      #$08,D0
00000078: ABE9           '..'              DC.W       $ABE9               ; TB 03E9
0000007A: 584F           'XO'              ADDQ.W     #4,A7
0000007C: 1005           '..'              MOVE.B     D5,D0
0000007E: 4CEE 1CF0 FFDA 'L.....'          MOVEM.L    -$0026(A6),D4-D7/A2-A4
00000084: 4E5E           'N^'              UNLK       A6
00000086: 4E75           'Nu'              RTS        
00000088: 6465 7669 6365 'device'          DC.B       'device_t'          ;MacsBug symbol
             5F74           
00000090: 7970           'yp'              DC.W       $7970
00000092: 6500           'e.'              DC.W       $6500

Comment:    
    
   INTERC_24C0 ended due to: ran into next module, 12 nulls trimmed

Comment:    
    
   #####################################################################################
   
   Module: INTERC_2560 [2560, 25FE)
   
   Module started due to: MODGUESS (align, label)
   
   Resolved outgoing references:
      +62 (25C2): JSR GETHANDLESIZE ; outside file
      +7E (25DE): JSR INTERC_2600_EXPERTENTRY	POINT 


Dictionary:          Flags $00 FirstId 250
                 250: INTERC_2560



Module:              Flags=$88=(ForcedActive Extern Code)  Module="INTERC_2560"(250) Segment="Main"(200)
Size:                Flags $00 ModuleSize 158

Content:             Flags $08
Contents offset $0000 size $009E
00000000: 4E56 FFFE      'NV..'            LINK.W     A6,#-$0002
00000004: 48E7 1F08      'H...'            MOVEM.L    D3-D7/A4,-(A7)
00000008: 558F           'U.'              SUBQ.L     #2,A7
0000000A: A994           '..'              _CurResFile                      ; A994
0000000C: 361F           '6.'              MOVE.W     (A7)+,D3
0000000E: 7000           'p.'              MOVEQ      #$00,D0
00000010: 3F00           '?.'              MOVE.W     D0,-(A7)
00000012: A998           '..'              _UseResFile                      ; A998
00000014: 558F           'U.'              SUBQ.L     #2,A7
00000016: 2F3C 6578 7074 '/<expt'          MOVE.L     #$65787074,-(A7)    ; 'expt'
0000001C: A80D           '..'              _Count1Resources                      ; A80D
0000001E: 381F           '8.'              MOVE.W     (A7)+,D4
00000020: 558F           'U.'              SUBQ.L     #2,A7
00000022: A9AF           '..'              _ResError                      ; A9AF
00000024: 301F           '0.'              MOVE.W     (A7)+,D0
00000026: 48C0           'H.'              EXT.L      D0
00000028: 2E00           '..'              MOVE.L     D0,D7
0000002A: 6664           'fd'              BNE.S      *+$0066             ; 00000090
0000002C: 7C01           '|.'              MOVEQ      #$01,D6
0000002E: 605C           '`\'              BRA.S      *+$005E             ; 0000008C
00000030: 7001           'p.'              MOVEQ      #$01,D0
00000032: 1F00           '..'              MOVE.B     D0,-(A7)
00000034: 70FF           'p.'              MOVEQ      #$FF,D0
00000036: 4A1F           'J.'              TST.B      (A7)+
00000038: 56C0           'V.'              SNE        D0
0000003A: 31C0 0B9E      '1...'            MOVE.W     D0,$0B9E
0000003E: 598F           'Y.'              SUBQ.L     #4,A7
00000040: 2F3C 6578 7074 '/<expt'          MOVE.L     #$65787074,-(A7)    ; 'expt'
00000046: 3F06           '?.'              MOVE.W     D6,-(A7)
00000048: A80E           '..'              _Get1IxResource                      ; A80E
0000004A: 285F           '(_'              MOVEA.L    (A7)+,A4
0000004C: 558F           'U.'              SUBQ.L     #2,A7
0000004E: A9AF           '..'              _ResError                      ; A9AF
00000050: 301F           '0.'              MOVE.W     (A7)+,D0
00000052: 48C0           'H.'              EXT.L      D0
00000054: 2E00           '..'              MOVE.L     D0,D7
00000056: 200C           ' .'              MOVE.L     A4,D0
00000058: 6730           'g0'              BEQ.S      *+$0032             ; 0000008A
0000005A: 4A87           'J.'              TST.L      D7
0000005C: 662C           'f,'              BNE.S      *+$002E             ; 0000008A
0000005E: 598F           'Y.'              SUBQ.L     #4,A7
00000060: 2F0C           '/.'              MOVE.L     A4,-(A7)
00000062: 4EBA 0000      'N...'            JSR        GETHANDLESIZE       ; id: 219
00000066: 2A1F           '*.'              MOVE.L     (A7)+,D5
00000068: 558F           'U.'              SUBQ.L     #2,A7
0000006A: 3EB8 0220      '>.. '            MOVE.W     $0220,(A7)
0000006E: 301F           '0.'              MOVE.W     (A7)+,D0
00000070: 48C0           'H.'              EXT.L      D0
00000072: 2E00           '..'              MOVE.L     D0,D7
00000074: 6610           'f.'              BNE.S      *+$0012             ; 00000086
00000076: 204C           ' L'              MOVEA.L    A4,A0
00000078: A029           '.)'              _HLock                         ; A029
0000007A: 2F05           '/.'              MOVE.L     D5,-(A7)
0000007C: 2F14           '/.'              MOVE.L     (A4),-(A7)
0000007E: 4EBA 0000      'N...'            JSR        INTERC_2600_EXPERTENTRY	POINT ; id: 251
00000082: 2E00           '..'              MOVE.L     D0,D7
00000084: 504F           'PO'              ADDQ.W     #8,A7
00000086: 2F0C           '/.'              MOVE.L     A4,-(A7)
00000088: A9A3           '..'              _ReleaseResource                      ; A9A3
0000008A: 5246           'RF'              ADDQ.W     #1,D6
0000008C: B846           '.F'              CMP.W      D6,D4
0000008E: 6CA0           'l.'              BGE.S      *-$005E             ; 00000030
00000090: 3F03           '?.'              MOVE.W     D3,-(A7)
00000092: A998           '..'              _UseResFile                      ; A998
00000094: 4CEE 10F8 FFE6 'L.....'          MOVEM.L    -$001A(A6),D3-D7/A4
0000009A: 4E5E           'N^'              UNLK       A6
0000009C: 4E75           'Nu'              RTS        


Reference:           Flags=$18=(16BitPatch 32BitOffsets FromCode) 
                     Ref="GETHANDLESIZE"(219)
                      00000064

Dictionary:          Flags $00 FirstId 251
                 251: INTERC_2600_EXPERTENTRY	POINT

Reference:           Flags=$18=(16BitPatch 32BitOffsets FromCode) 
                     Ref="INTERC_2600_EXPERTENTRY	POINT"(251)
                      00000080
Comment:    
    
   INTERC_2560 ended due to: ran into next module, 2 nulls trimmed 

Comment:    
    
   #####################################################################################
   
   Module: INTERC_2600_EXPERTENTRY	POINT [2600, 26E8)
   
   Module started due to: MODGUESS (align, label, RTS then padding)
   
   Unresolved outgoing references:
      +32 (2632): PEA $26E8


Dictionary:          Flags $00 FirstId 252
                 252: INTERC_2600_EXPERTENTRY	POINT



Module:              Flags=$88=(ForcedActive Extern Code)  Module="INTERC_2600_EXPERTENTRY	POINT"(252) Segment="Main"(200)
Size:                Flags $00 ModuleSize 232

Content:             Flags $08
Contents offset $0000 size $00E8
00000000: 4E56 FFB2      'NV..'            LINK.W     A6,#-$004E
00000004: 48E7 0338      'H..8'            MOVEM.L    D6/D7/A2-A4,-(A7)
00000008: 2C2E 000C      ',...'            MOVE.L     $000C(A6),D6
0000000C: 266E 0008      '&n..'            MOVEA.L    $0008(A6),A3
00000010: 200B           ' .'              MOVE.L     A3,D0
00000012: 6704           'g.'              BEQ.S      *+$0006             ; 00000018
00000014: 4A86           'J.'              TST.L      D6
00000016: 6606           'f.'              BNE.S      *+$0008             ; 0000001E
00000018: 70CE           'p.'              MOVEQ      #$CE,D0
0000001A: 6000 00B0      '`...'            BRA        *+$00B2             ; 000000CC
0000001E: A11A           '..'              _GetZone                       ; A11A
00000020: 2448           '$H'              MOVEA.L    A0,A2
00000022: 598F           'Y.'              SUBQ.L     #4,A7
00000024: 2EB8 02A6      '....'            MOVE.L     $02A6,(A7)
00000028: 205F           ' _'              MOVEA.L    (A7)+,A0
0000002A: A01B           '..'              _SetZone                       ; A01B
0000002C: 558F           'U.'              SUBQ.L     #2,A7
0000002E: 2F0B           '/.'              MOVE.L     A3,-(A7)
00000030: 2F06           '/.'              MOVE.L     D6,-(A7)
00000032: 487A 00B4      'Hz..'            PEA        *+$00B6             ; 000000E8
00000036: 7005           'p.'              MOVEQ      #$05,D0
00000038: 2F00           '/.'              MOVE.L     D0,-(A7)
0000003A: 486E FFB6      'Hn..'            PEA        -$004A(A6)
0000003E: 486E FFBA      'Hn..'            PEA        -$0046(A6)
00000042: 486E FFBE      'Hn..'            PEA        -$0042(A6)
00000046: 3F3C 0003      '?<..'            MOVE.W     #$0003,-(A7)
0000004A: AA5A           '.Z'              _CodeFragmentDispatch                      ; AA5A
0000004C: 301F           '0.'              MOVE.W     (A7)+,D0
0000004E: 48C0           'H.'              EXT.L      D0
00000050: 2E00           '..'              MOVE.L     D0,D7
00000052: 6672           'fr'              BNE.S      *+$0074             ; 000000C6
00000054: 558F           'U.'              SUBQ.L     #2,A7
00000056: 2F2E FFB6      '/...'            MOVE.L     -$004A(A6),-(A7)
0000005A: 487A 007A      'Hz.z'            PEA        *+$007C             ; 000000D6
0000005E: 486E FFBA      'Hn..'            PEA        -$0046(A6)
00000062: 486E FFFF      'Hn..'            PEA        -$0001(A6)
00000066: 3F3C 0005      '?<..'            MOVE.W     #$0005,-(A7)
0000006A: AA5A           '.Z'              _CodeFragmentDispatch                      ; AA5A
0000006C: 301F           '0.'              MOVE.W     (A7)+,D0
0000006E: 48C0           'H.'              EXT.L      D0
00000070: 2E00           '..'              MOVE.L     D0,D7
00000072: 6644           'fD'              BNE.S      *+$0046             ; 000000B8
00000074: 7000           'p.'              MOVEQ      #$00,D0
00000076: 102E FFFF      '....'            MOVE.B     -$0001(A6),D0
0000007A: 0C40 0002      '.@..'            CMPI.W     #$0002,D0
0000007E: 6708           'g.'              BEQ.S      *+$000A             ; 00000088
00000080: 2E3C FFFF F50E '.<....'          MOVE.L     #$FFFFF50E,D7
00000086: 6030           '`0'              BRA.S      *+$0032             ; 000000B8
00000088: 598F           'Y.'              SUBQ.L     #4,A7
0000008A: 2F2E FFBA      '/...'            MOVE.L     -$0046(A6),-(A7)
0000008E: 4878 03E1      'Hx..'            PEA        $03E1
00000092: 7001           'p.'              MOVEQ      #$01,D0
00000094: 1F00           '..'              MOVE.B     D0,-(A7)
00000096: 7000           'p.'              MOVEQ      #$00,D0
00000098: AA59           '.Y'              _MixedModeDispatch                      ; AA59
0000009A: 285F           '(_'              MOVEA.L    (A7)+,A4
0000009C: 200C           ' .'              MOVE.L     A4,D0
0000009E: 6604           'f.'              BNE.S      *+$0006             ; 000000A4
000000A0: 7E94           '~.'              MOVEQ      #$94,D7
000000A2: 6014           '`.'              BRA.S      *+$0016             ; 000000B8
000000A4: 7000           'p.'              MOVEQ      #$00,D0
000000A6: 2F00           '/.'              MOVE.L     D0,-(A7)
000000A8: 2F00           '/.'              MOVE.L     D0,-(A7)
000000AA: 4E94           'N.'              JSR        (A4)
000000AC: 48C0           'H.'              EXT.L      D0
000000AE: 2E00           '..'              MOVE.L     D0,D7
000000B0: 2F0C           '/.'              MOVE.L     A4,-(A7)
000000B2: 7001           'p.'              MOVEQ      #$01,D0
000000B4: AA59           '.Y'              _MixedModeDispatch                      ; AA59
000000B6: 504F           'PO'              ADDQ.W     #8,A7
000000B8: 558F           'U.'              SUBQ.L     #2,A7
000000BA: 486E FFB6      'Hn..'            PEA        -$004A(A6)
000000BE: 3F3C 0004      '?<..'            MOVE.W     #$0004,-(A7)
000000C2: AA5A           '.Z'              _CodeFragmentDispatch                      ; AA5A
000000C4: 544F           'TO'              ADDQ.W     #2,A7
000000C6: 204A           ' J'              MOVEA.L    A2,A0
000000C8: A01B           '..'              _SetZone                       ; A01B
000000CA: 2007           ' .'              MOVE.L     D7,D0
000000CC: 4CEE 1CC0 FF9E 'L.....'          MOVEM.L    -$0062(A6),D6/D7/A2-A4
000000D2: 4E5E           'N^'              UNLK       A6
000000D4: 4E75           'Nu'              RTS        
000000D6: 1045           '.E'              MOVE.B     D5,A0
000000D8: 7870           'xp'              MOVEQ      #$70,D4             ; 'p'
000000DA: 6572           'er'              BCS.S      *+$0074             ; 0000014E
000000DC: 7445           'tE'              MOVEQ      #$45,D2             ; 'E'
000000DE: 6E74           'nt'              BGT.S      *+$0076             ; 00000154
000000E0: 7279           'ry'              MOVEQ      #$79,D1             ; 'y'
000000E2: 506F 696E      'Poin'            ADDQ.W     #8,$696E(A7)
000000E6: 7400           't.'              MOVEQ      #$00,D2

Comment:    
    
   INTERC_2600_EXPERTENTRY	POINT ended due to: ran into next module, 8 nulls trimmed 

Comment:    
    
   #####################################################################################
   
   Module: INTERC_26F0 [26F0, 2744)
   
   Module started due to: MODGUESS (align, label) 


Dictionary:          Flags $00 FirstId 253
                 253: INTERC_26F0



Module:              Flags=$88=(ForcedActive Extern Code)  Module="INTERC_26F0"(253) Segment="Main"(200)
Size:                Flags $00 ModuleSize 84

Content:             Flags $08
Contents offset $0000 size $0054
00000000: 4E56 FFE0      'NV..'            LINK.W     A6,#-$0020
00000004: 7000           'p.'              MOVEQ      #$00,D0
00000006: 2D40 FFFC      '-@..'            MOVE.L     D0,-$0004(A6)
0000000A: 2D40 FFF8      '-@..'            MOVE.L     D0,-$0008(A6)
0000000E: 2D40 FFF4      '-@..'            MOVE.L     D0,-$000C(A6)
00000012: 3D7C 0004 FFF2 '=|....'          MOVE.W     #$0004,-$000E(A6)
00000018: 1D7C 0001 FFF1 '.|....'          MOVE.B     #$01,-$000F(A6)
0000001E: 422E FFF0      'B...'            CLR.B      -$0010(A6)
00000022: 7221           'r!'              MOVEQ      #$21,D1             ; '!'
00000024: 2D41 FFEC      '-A..'            MOVE.L     D1,-$0014(A6)
00000028: 426E FFEA      'Bn..'            CLR.W      -$0016(A6)
0000002C: 426E FFE8      'Bn..'            CLR.W      -$0018(A6)
00000030: 2D40 FFE4      '-@..'            MOVE.L     D0,-$001C(A6)
00000034: 422E FFE3      'B...'            CLR.B      -$001D(A6)
00000038: 1D7C 0007 FFE2 '.|....'          MOVE.B     #$07,-$001E(A6)
0000003E: 3D7C AAFE FFE0 '=|....'          MOVE.W     #$AAFE,-$0020(A6)
00000044: 2D6E 0008 FFF4 '-n....'          MOVE.L     $0008(A6),-$000C(A6)
0000004A: 41EE FFE0      'A...'            LEA        -$0020(A6),A0
0000004E: 4E90           'N.'              JSR        (A0)
00000050: 4E5E           'N^'              UNLK       A6
00000052: 4E75           'Nu'              RTS        

Comment:    
    
   INTERC_26F0 ended due to: ran into next module, 12 nulls trimmed

Comment:    
    
   #####################################################################################
   
   Module: INTERC_2750 [2750, 2776)
   
   Module started due to: MODGUESS (align, label, RTS then padding) 


Dictionary:          Flags $00 FirstId 254
                 254: INTERC_2750



Module:              Flags=$88=(ForcedActive Extern Code)  Module="INTERC_2750"(254) Segment="Main"(200)
Size:                Flags $00 ModuleSize 38

Content:             Flags $08
Contents offset $0000 size $0026
00000000: 4E56 0000      'NV..'            LINK.W     A6,#$0000
00000004: 48E7 0018      'H...'            MOVEM.L    A3/A4,-(A7)
00000008: 2078 02B6      ' x..'            MOVEA.L    $02B6,A0
0000000C: 2868 030C      '(h..'            MOVEA.L    $030C(A0),A4
00000010: 200C           ' .'              MOVE.L     A4,D0
00000012: 6708           'g.'              BEQ.S      *+$000A             ; 0000001C
00000014: 2654           '&T'              MOVEA.L    (A4),A3
00000016: 200B           ' .'              MOVE.L     A3,D0
00000018: 6702           'g.'              BEQ.S      *+$0004             ; 0000001C
0000001A: 4E93           'N.'              JSR        (A3)
0000001C: 4CEE 1800 FFF8 'L.....'          MOVEM.L    -$0008(A6),A3/A4
00000022: 4E5E           'N^'              UNLK       A6
00000024: 4E75           'Nu'              RTS        

Comment:    
    
   INTERC_2750 ended due to: ran into next module, 10 nulls trimmed

Comment:    
    
   #####################################################################################
   
   Module: INTERC_2780_FIREWIRE [2780, 29BE)
   
   Module started due to: MODGUESS (align, label, RTS then padding)
   
   Resolved outgoing references:
      +1A0 (2920): JSR GETHANDLESIZE ; outside file
      +138 (28B8): JSR GETHANDLESIZE ; outside file
      +1D0 (2950): JSR INTERC_2750
      +1CA (294A): JSR INTERC_26F0
      +162 (28E2): JSR INTERC_26F0
      +BE (283E): JSR STARTLIB_GETFIREWIRESTARTUPDEVICEINFO ; outside file
      +E (278E): JSR STARTLIB_GETSTARTUPDEVICETYPE ; outside file 


Dictionary:          Flags $00 FirstId 255
                 255: INTERC_2780_FIREWIRE
Pad         



Module:              Flags=$88=(ForcedActive Extern Code)  Module="INTERC_2780_FIREWIRE"(255) Segment="Main"(200)
Size:                Flags $00 ModuleSize 574

Content:             Flags $08
Contents offset $0000 size $023E
00000000: 4E56 FECC      'NV..'            LINK.W     A6,#-$0134
00000004: 48E7 1318      'H...'            MOVEM.L    D3/D6/D7/A3/A4,-(A7)
00000008: 4206           'B.'              CLR.B      D6
0000000A: 486E FFEC      'Hn..'            PEA        -$0014(A6)
0000000E: 4EBA 0000      'N...'            JSR        STARTLIB_GETSTARTUPDEVICETYPE ; id: 257
00000012: 4A40           'J@'              TST.W      D0
00000014: 584F           'XO'              ADDQ.W     #4,A7
00000016: 660E           'f.'              BNE.S      *+$0010             ; 00000026
00000018: 0CAE 6669 7265 '..fire'          CMPI.L     #$66697265,-$0014(A6) ; 'fire'
             FFEC           
00000020: 57C3           'W.'              SEQ        D3
00000022: 4403           'D.'              NEG.B      D3
00000024: 1C03           '..'              MOVE.B     D3,D6
00000026: 4A06           'J.'              TST.B      D6
00000028: 6678           'fx'              BNE.S      *+$007A             ; 000000A2
0000002A: 7000           'p.'              MOVEQ      #$00,D0
0000002C: 2D40 FFF0      '-@..'            MOVE.L     D0,-$0010(A6)
00000030: 2D40 FFF4      '-@..'            MOVE.L     D0,-$000C(A6)
00000034: 2D40 FFF8      '-@..'            MOVE.L     D0,-$0008(A6)
00000038: 422E FFFC      'B...'            CLR.B      -$0004(A6)
0000003C: 558F           'U.'              SUBQ.L     #2,A7
0000003E: 486E FFF0      'Hn..'            PEA        -$0010(A6)
00000042: 7000           'p.'              MOVEQ      #$00,D0
00000044: 2F00           '/.'              MOVE.L     D0,-(A7)
00000046: 487A 01E8      'Hz..'            PEA        *+$01EA             ; 00000230
0000004A: 7201           'r.'              MOVEQ      #$01,D1
0000004C: 1F01           '..'              MOVE.B     D1,-(A7)
0000004E: 3F3C FFFC      '?<..'            MOVE.W     #$FFFC,-(A7)
00000052: AA5A           '.Z'              _CodeFragmentDispatch                      ; AA5A
00000054: 558F           'U.'              SUBQ.L     #2,A7
00000056: 486E FFF0      'Hn..'            PEA        -$0010(A6)
0000005A: 7000           'p.'              MOVEQ      #$00,D0
0000005C: 2F00           '/.'              MOVE.L     D0,-(A7)
0000005E: 487A 01C6      'Hz..'            PEA        *+$01C8             ; 00000226
00000062: 7201           'r.'              MOVEQ      #$01,D1
00000064: 1F01           '..'              MOVE.B     D1,-(A7)
00000066: 3F3C FFFC      '?<..'            MOVE.W     #$FFFC,-(A7)
0000006A: AA5A           '.Z'              _CodeFragmentDispatch                      ; AA5A
0000006C: 558F           'U.'              SUBQ.L     #2,A7
0000006E: 486E FFF0      'Hn..'            PEA        -$0010(A6)
00000072: 7000           'p.'              MOVEQ      #$00,D0
00000074: 2F00           '/.'              MOVE.L     D0,-(A7)
00000076: 487A 01A6      'Hz..'            PEA        *+$01A8             ; 0000021E
0000007A: 7201           'r.'              MOVEQ      #$01,D1
0000007C: 1F01           '..'              MOVE.B     D1,-(A7)
0000007E: 3F3C FFFC      '?<..'            MOVE.W     #$FFFC,-(A7)
00000082: AA5A           '.Z'              _CodeFragmentDispatch                      ; AA5A
00000084: 558F           'U.'              SUBQ.L     #2,A7
00000086: 486E FFF0      'Hn..'            PEA        -$0010(A6)
0000008A: 7000           'p.'              MOVEQ      #$00,D0
0000008C: 2F00           '/.'              MOVE.L     D0,-(A7)
0000008E: 487A 0178      'Hz.x'            PEA        *+$017A             ; 00000208
00000092: 7201           'r.'              MOVEQ      #$01,D1
00000094: 1F01           '..'              MOVE.B     D1,-(A7)
00000096: 3F3C FFFC      '?<..'            MOVE.W     #$FFFC,-(A7)
0000009A: AA5A           '.Z'              _CodeFragmentDispatch                      ; AA5A
0000009C: 504F           'PO'              ADDQ.W     #8,A7
0000009E: 6000 013A      '`..:'            BRA        *+$013C             ; 000001DA
000000A2: A11A           '..'              _GetZone                       ; A11A
000000A4: 2D48 FECC      '-H..'            MOVE.L     A0,-$0134(A6)
000000A8: 598F           'Y.'              SUBQ.L     #4,A7
000000AA: 2EB8 02A6      '....'            MOVE.L     $02A6,(A7)
000000AE: 205F           ' _'              MOVEA.L    (A7)+,A0
000000B0: A01B           '..'              _SetZone                       ; A01B
000000B2: 486E FFE8      'Hn..'            PEA        -$0018(A6)
000000B6: 486E FFE4      'Hn..'            PEA        -$001C(A6)
000000BA: 486E FFDC      'Hn..'            PEA        -$0024(A6)
000000BE: 4EBA 0000      'N...'            JSR        STARTLIB_GETFIREWIRESTARTUPDEVICEINFO ; id: 256
000000C2: 4A40           'J@'              TST.W      D0
000000C4: 4FEF 000C      'O...'            LEA        $000C(A7),A7
000000C8: 6600 010A      'f...'            BNE        *+$010C             ; 000001D4
000000CC: 203C 0000 00D8 ' <....'          MOVE.L     #$000000D8,D0
000000D2: A71E           '..'              _NewPtrSysClear                      ; A71E
000000D4: 2848           '(H'              MOVEA.L    A0,A4
000000D6: 200C           ' .'              MOVE.L     A4,D0
000000D8: 6700 00FA      'g...'            BEQ        *+$00FC             ; 000001D4
000000DC: 297C 0000 00D8 ')|....'          MOVE.L     #$000000D8,$0020(A4)
             0020           
000000E4: 297C 4657 4947 ')|FWIG'          MOVE.L     #$46574947,$000C(A4) ; 'FWIG'
             000C           
000000EC: 41EC 0010      'A...'            LEA        $0010(A4),A0
000000F0: 43EE FFDC      'C...'            LEA        -$0024(A6),A1
000000F4: 20D9           ' .'              MOVE.L     (A1)+,(A0)+
000000F6: 20D9           ' .'              MOVE.L     (A1)+,(A0)+
000000F8: 296E FFE4 0018 ')n....'          MOVE.L     -$001C(A6),$0018(A4)
000000FE: 296E FFE8 001C ')n....'          MOVE.L     -$0018(A6),$001C(A4)
00000104: 2078 02B6      ' x..'            MOVEA.L    $02B6,A0
00000108: 214C 030C      '!L..'            MOVE.L     A4,$030C(A0)
0000010C: 7001           'p.'              MOVEQ      #$01,D0
0000010E: 1F00           '..'              MOVE.B     D0,-(A7)
00000110: 70FF           'p.'              MOVEQ      #$FF,D0
00000112: 4A1F           'J.'              TST.B      (A7)+
00000114: 56C0           'V.'              SNE        D0
00000116: 31C0 0B9E      '1...'            MOVE.W     D0,$0B9E
0000011A: 598F           'Y.'              SUBQ.L     #4,A7
0000011C: 2F3C 6672 6167 '/<frag'          MOVE.L     #$66726167,-(A7)    ; 'frag'
00000122: 487A 00CE      'Hz..'            PEA        *+$00D0             ; 000001F2
00000126: A9A1           '..'              _GetNamedResource                      ; A9A1
00000128: 265F           '&_'              MOVEA.L    (A7)+,A3
0000012A: 200B           ' .'              MOVE.L     A3,D0
0000012C: 6700 00A6      'g...'            BEQ        *+$00A8             ; 000001D4
00000130: 558F           'U.'              SUBQ.L     #2,A7
00000132: 2F13           '/.'              MOVE.L     (A3),-(A7)
00000134: 598F           'Y.'              SUBQ.L     #4,A7
00000136: 2F0B           '/.'              MOVE.L     A3,-(A7)
00000138: 4EBA 0000      'N...'            JSR        GETHANDLESIZE       ; id: 219
0000013C: 487A 00B4      'Hz..'            PEA        *+$00B6             ; 000001F2
00000140: 7005           'p.'              MOVEQ      #$05,D0
00000142: 2F00           '/.'              MOVE.L     D0,-(A7)
00000144: 486E FFD4      'Hn..'            PEA        -$002C(A6)
00000148: 486E FED0      'Hn..'            PEA        -$0130(A6)
0000014C: 486E FED4      'Hn..'            PEA        -$012C(A6)
00000150: 3F3C 0003      '?<..'            MOVE.W     #$0003,-(A7)
00000154: AA5A           '.Z'              _CodeFragmentDispatch                      ; AA5A
00000156: 301F           '0.'              MOVE.W     (A7)+,D0
00000158: 48C0           'H.'              EXT.L      D0
0000015A: 2E00           '..'              MOVE.L     D0,D7
0000015C: 660E           'f.'              BNE.S      *+$0010             ; 0000016C
0000015E: 2F2E FED0      '/...'            MOVE.L     -$0130(A6),-(A7)
00000162: 4EBA 0000      'N...'            JSR        INTERC_26F0         ; id: 253
00000166: 48C0           'H.'              EXT.L      D0
00000168: 2E00           '..'              MOVE.L     D0,D7
0000016A: 584F           'XO'              ADDQ.W     #4,A7
0000016C: 4A87           'J.'              TST.L      D7
0000016E: 6664           'fd'              BNE.S      *+$0066             ; 000001D4
00000170: 7001           'p.'              MOVEQ      #$01,D0
00000172: 1F00           '..'              MOVE.B     D0,-(A7)
00000174: 70FF           'p.'              MOVEQ      #$FF,D0
00000176: 4A1F           'J.'              TST.B      (A7)+
00000178: 56C0           'V.'              SNE        D0
0000017A: 31C0 0B9E      '1...'            MOVE.W     D0,$0B9E
0000017E: 598F           'Y.'              SUBQ.L     #4,A7
00000180: 2F3C 6672 6167 '/<frag'          MOVE.L     #$66726167,-(A7)    ; 'frag'
00000186: 487A 005C      'Hz.\'            PEA        *+$005E             ; 000001E4
0000018A: A9A1           '..'              _GetNamedResource                      ; A9A1
0000018C: 2D5F FFD8      '-_..'            MOVE.L     (A7)+,-$0028(A6)
00000190: 6742           'gB'              BEQ.S      *+$0044             ; 000001D4
00000192: 558F           'U.'              SUBQ.L     #2,A7
00000194: 206E FFD8      ' n..'            MOVEA.L    -$0028(A6),A0
00000198: 2F10           '/.'              MOVE.L     (A0),-(A7)
0000019A: 598F           'Y.'              SUBQ.L     #4,A7
0000019C: 2F2E FFD8      '/...'            MOVE.L     -$0028(A6),-(A7)
000001A0: 4EBA 0000      'N...'            JSR        GETHANDLESIZE       ; id: 219
000001A4: 487A 003E      'Hz.>'            PEA        *+$0040             ; 000001E4
000001A8: 7005           'p.'              MOVEQ      #$05,D0
000001AA: 2F00           '/.'              MOVE.L     D0,-(A7)
000001AC: 486E FFD4      'Hn..'            PEA        -$002C(A6)
000001B0: 486E FED0      'Hn..'            PEA        -$0130(A6)
000001B4: 486E FED4      'Hn..'            PEA        -$012C(A6)
000001B8: 3F3C 0003      '?<..'            MOVE.W     #$0003,-(A7)
000001BC: AA5A           '.Z'              _CodeFragmentDispatch                      ; AA5A
000001BE: 301F           '0.'              MOVE.W     (A7)+,D0
000001C0: 48C0           'H.'              EXT.L      D0
000001C2: 2E00           '..'              MOVE.L     D0,D7
000001C4: 660A           'f.'              BNE.S      *+$000C             ; 000001D0
000001C6: 2F2E FED0      '/...'            MOVE.L     -$0130(A6),-(A7)
000001CA: 4EBA 0000      'N...'            JSR        INTERC_26F0         ; id: 253
000001CE: 584F           'XO'              ADDQ.W     #4,A7
000001D0: 4EBA 0000      'N...'            JSR        INTERC_2750         ; id: 254
000001D4: 206E FECC      ' n..'            MOVEA.L    -$0134(A6),A0
000001D8: A01B           '..'              _SetZone                       ; A01B
000001DA: 4CEE 18C8 FEB8 'L.....'          MOVEM.L    -$0148(A6),D3/D6/D7/A3/A4
000001E0: 4E5E           'N^'              UNLK       A6
000001E2: 4E75           'Nu'              RTS        
000001E4: 0C46 5750      '.FWP'            CMPI.W     #$5750,D6           ; 'WP'
000001E8: 4349           'CI'              DC.W       $4349               ; ????
000001EA: 5363           'Sc'              SUBQ.W     #1,-(A3)
000001EC: 616E           'an'              BSR.S      *+$0070             ; 0000025C
000001EE: 6E65           'ne'              BGT.S      *+$0067             ; 00000255
000001F0: 7200           'r.'              MOVEQ      #$00,D1
000001F2: 1446           '.F'              MOVE.B     D6,A2
000001F4: 5745           'WE'              SUBQ.W     #3,D5
000001F6: 7870           'xp'              MOVEQ      #$70,D4             ; 'p'
000001F8: 6572           'er'              BCS.S      *+$0074             ; 0000026C
000001FA: 7452           'tR'              MOVEQ      #$52,D2             ; 'R'
000001FC: 6567           'eg'              BCS.S      *+$0069             ; 00000265
000001FE: 6973           'is'              BVS.S      *+$0075             ; 00000273
00000200: 7472           'tr'              MOVEQ      #$72,D2             ; 'r'
00000202: 6174           'at'              BSR.S      *+$0076             ; 00000278
00000204: 696F           'io'              BVS.S      *+$0071             ; 00000275
00000206: 6E00 1347      'n..G'            BGT        *+$1349             ; 0000154F
0000020A: 656E           'en'              BCS.S      *+$0070             ; 0000027A
0000020C: 6572           'er'              BCS.S      *+$0074             ; 00000280
0000020E: 6963           'ic'              BVS.S      *+$0065             ; 00000273
00000210: 4472           'Dr'              DC.W       $4472               ; ????
00000212: 6976           'iv'              BVS.S      *+$0078             ; 0000028A
00000214: 6572           'er'              BCS.S      *+$0074             ; 00000288
00000216: 4661           'Fa'              NOT.W      -(A1)
00000218: 6D69           'mi'              BLT.S      *+$006B             ; 00000283
0000021A: 6C79           'ly'              BGE.S      *+$007B             ; 00000295
0000021C: 0000 0644      '...D'            ORI.B      #$44,D0             ; 'D'
00000220: 464D           'FM'              NOT.W      A5
00000222: 4C69 6200 0744 'Lib..D'          TDIVU.L    $0744(A1),D0:D6
00000228: 6576           'ev'              BCS.S      *+$0078             ; 000002A0
0000022A: 4E4C           'NL'              TRAP       #$0C
0000022C: 6962           'ib'              BVS.S      *+$0064             ; 00000290
0000022E: 0000 0D46      '...F'            ORI.B      #$46,D0             ; 'F'
00000232: 5753           'WS'              SUBQ.W     #3,(A3)
00000234: 6572           'er'              BCS.S      *+$0074             ; 000002A8
00000236: 7669           'vi'              MOVEQ      #$69,D3             ; 'i'
00000238: 6365           'ce'              BLS.S      *+$0067             ; 0000029F
0000023A: 734C           'sL'              DC.W       $734C               ; ????
0000023C: 6962           'ib'              BVS.S      *+$0064             ; 000002A0


Reference:           Flags=$18=(16BitPatch 32BitOffsets FromCode) 
                     Ref="GETHANDLESIZE"(219)
                      000001A2

Reference:           Flags=$18=(16BitPatch 32BitOffsets FromCode) 
                     Ref="GETHANDLESIZE"(219)
                      0000013A

Reference:           Flags=$18=(16BitPatch 32BitOffsets FromCode) 
                     Ref="INTERC_2750"(254)
                      000001D2

Reference:           Flags=$18=(16BitPatch 32BitOffsets FromCode) 
                     Ref="INTERC_26F0"(253)
                      000001CC

Reference:           Flags=$18=(16BitPatch 32BitOffsets FromCode) 
                     Ref="INTERC_26F0"(253)
                      00000164

Dictionary:          Flags $00 FirstId 256
                 256: STARTLIB_GETFIREWIRESTARTUPDEVICEINFO

Reference:           Flags=$18=(16BitPatch 32BitOffsets FromCode) 
                     Ref="STARTLIB_GETFIREWIRESTARTUPDEVICEINFO"(256)
                      000000C0

Dictionary:          Flags $00 FirstId 257
                 257: STARTLIB_GETSTARTUPDEVICETYPE

Reference:           Flags=$18=(16BitPatch 32BitOffsets FromCode) 
                     Ref="STARTLIB_GETSTARTUPDEVICETYPE"(257)
                      00000010
Comment:    
    
   INTERC_2780_FIREWIRE ended due to: ran into next module, 2 nulls trimmed

Comment:    
    
   #####################################################################################
   
   Module: INTERC_29C0_WIRELESS [29C0, 2A1C)
   
   Module started due to: MODGUESS (align, label)
   
   Unresolved outgoing references:
      +12 (29D2): PEA $2A1E 


Dictionary:          Flags $00 FirstId 258
                 258: INTERC_29C0_WIRELESS
Pad         



Module:              Flags=$88=(ForcedActive Extern Code)  Module="INTERC_29C0_WIRELESS"(258) Segment="Main"(200)
Size:                Flags $00 ModuleSize 92

Content:             Flags $08
Contents offset $0000 size $005C
00000000: 4E56 FFEE      'NV..'            LINK.W     A6,#-$0012
00000004: 2F07           '/.'              MOVE.L     D7,-(A7)
00000006: 1D7C 0001 FFFF '.|....'          MOVE.B     #$01,-$0001(A6)
0000000C: 7000           'p.'              MOVEQ      #$00,D0
0000000E: 2F00           '/.'              MOVE.L     D0,-(A7)
00000010: 2F00           '/.'              MOVE.L     D0,-(A7)
00000012: 487A 004A      'Hz.J'            PEA        *+$004C             ; 0000005E
00000016: 487A 003C      'Hz.<'            PEA        *+$003E             ; 00000054
0000001A: 487A 0030      'Hz.0'            PEA        *+$0032             ; 0000004C
0000001E: 487A 0026      'Hz.&'            PEA        *+$0028             ; 00000046
00000022: 486E FFEE      'Hn..'            PEA        -$0012(A6)
00000026: 70FD           'p.'              MOVEQ      #$FD,D0
00000028: ABE9           '..'              DC.W       $ABE9               ; TB 03E9
0000002A: 2E00           '..'              MOVE.L     D0,D7
0000002C: 4FEF 001C      'O...'            LEA        $001C(A7),A7
00000030: 660C           'f.'              BNE.S      *+$000E             ; 0000003E
00000032: 41EE FFFF      'A...'            LEA        -$0001(A6),A0
00000036: 203C 0001 00E2 ' <....'          MOVE.L     #$000100E2,D0
0000003C: A052           '.R'              _WriteXPRam                      ; A052
0000003E: 2E2E FFEA      '....'            MOVE.L     -$0016(A6),D7
00000042: 4E5E           'N^'              UNLK       A6
00000044: 4E75           'Nu'              RTS        
00000046: 7261           'ra'              MOVEQ      #$61,D1             ; 'a'
00000048: 6469           'di'              BCC.S      *+$006B             ; 000000B3
0000004A: 6F00 6E65      'o.ne'            BLE        *+$6E67             ; 00006EB1
0000004E: 7477           'tw'              MOVEQ      #$77,D2             ; 'w'
00000050: 6F72           'or'              BLE.S      *+$0074             ; 000000C4
00000052: 6B00 7769      'k.wi'            BMI        *+$776B             ; 000077BD
00000056: 7265           're'              MOVEQ      #$65,D1             ; 'e'
00000058: 6C65           'le'              BGE.S      *+$0067             ; 000000BF
0000005A: 7373           'ss'              DC.W       $7373               ; ????

Comment:    
    
   INTERC_29C0_WIRELESS ended due to: ran into next module, 4 nulls trimmed

Comment:    
    
   #####################################################################################
   
   Module: INTERC_2A20_SCSITARGETMODE [2A20, 2A7E)
   
   Module started due to: MODGUESS (align, label)


Dictionary:          Flags $00 FirstId 259
                 259: INTERC_2A20_SCSITARGETMODE
Pad         



Module:              Flags=$88=(ForcedActive Extern Code)  Module="INTERC_2A20_SCSITARGETMODE"(259) Segment="Main"(200)
Size:                Flags $00 ModuleSize 94

Content:             Flags $08
Contents offset $0000 size $005E
00000000: 4E56 FFF0      'NV..'            LINK.W     A6,#-$0010
00000004: 2F07           '/.'              MOVE.L     D7,-(A7)
00000006: 486E FFF0      'Hn..'            PEA        -$0010(A6)
0000000A: 7000           'p.'              MOVEQ      #$00,D0
0000000C: ABE9           '..'              DC.W       $ABE9               ; TB 03E9
0000000E: 2E00           '..'              MOVE.L     D0,D7
00000010: 7005           'p.'              MOVEQ      #$05,D0
00000012: 2F00           '/.'              MOVE.L     D0,-(A7)
00000014: 487A 0044      'Hz.D'            PEA        *+$0046             ; 0000005A
00000018: 487A 002C      'Hz.,'            PEA        *+$002E             ; 00000046
0000001C: 7200           'r.'              MOVEQ      #$00,D1
0000001E: 2F01           '/.'              MOVE.L     D1,-(A7)
00000020: 2F01           '/.'              MOVE.L     D1,-(A7)
00000022: 2F01           '/.'              MOVE.L     D1,-(A7)
00000024: 486E FFF0      'Hn..'            PEA        -$0010(A6)
00000028: 70FD           'p.'              MOVEQ      #$FD,D0
0000002A: ABE9           '..'              DC.W       $ABE9               ; TB 03E9
0000002C: 2E00           '..'              MOVE.L     D0,D7
0000002E: 660E           'f.'              BNE.S      *+$0010             ; 0000003E
00000030: 203C 2000 0000 ' < ...'          MOVE.L     #$20000000,D0
00000036: 80B8 2408      '..$.'            OR.L       $2408,D0
0000003A: 21C0 2408      '!.$.'            MOVE.L     D0,$2408
0000003E: 2E2E FFEC      '....'            MOVE.L     -$0014(A6),D7
00000042: 4E5E           'N^'              UNLK       A6
00000044: 4E75           'Nu'              RTS        
00000046: 7461           'ta'              MOVEQ      #$61,D2             ; 'a'
00000048: 7267           'rg'              MOVEQ      #$67,D1             ; 'g'
0000004A: 6574           'et'              BCS.S      *+$0076             ; 000000C0
0000004C: 2D6D 6F64 652D '-mode-'          MOVE.L     $6F64(A5),$652D(A6)
00000052: 6361           'ca'              BLS.S      *+$0063             ; 000000B5
00000054: 7061           'pa'              MOVEQ      #$61,D0             ; 'a'
00000056: 626C           'bl'              BHI.S      *+$006E             ; 000000C4
00000058: 6500 5343      'e.SC'            BCS        *+$5345             ; 0000539D
0000005C: 5349           'SI'              SUBQ.W     #1,A1

Comment:    
    
   INTERC_2A20_SCSITARGETMODE ended due to: ran into next module, 2 nulls trimmed

Comment:    
    
   #####################################################################################
   
   Module: INTERC_2A80_ETHERPRINTFLIB [2A80, 2B16)
   
   Module started due to: MODGUESS (align, label)
   
   Resolved outgoing references:
      +5E (2ADE): JSR INTERC_1750_LANLIB


Dictionary:          Flags $00 FirstId 260
                 260: INTERC_2A80_ETHERPRINTFLIB
Pad         



Module:              Flags=$88=(ForcedActive Extern Code)  Module="INTERC_2A80_ETHERPRINTFLIB"(260) Segment="Main"(200)
Size:                Flags $00 ModuleSize 150

Content:             Flags $08
Contents offset $0000 size $0096
00000000: 4E56 FEF2      'NV..'            LINK.W     A6,#-$010E
00000004: 48E7 0118      'H...'            MOVEM.L    D7/A3/A4,-(A7)
00000008: 7000           'p.'              MOVEQ      #$00,D0
0000000A: 2640           '&@'              MOVEA.L    D0,A3
0000000C: A11A           '..'              _GetZone                       ; A11A
0000000E: 2848           '(H'              MOVEA.L    A0,A4
00000010: 598F           'Y.'              SUBQ.L     #4,A7
00000012: 2EB8 02A6      '....'            MOVE.L     $02A6,(A7)
00000016: 205F           ' _'              MOVEA.L    (A7)+,A0
00000018: A01B           '..'              _SetZone                       ; A01B
0000001A: 558F           'U.'              SUBQ.L     #2,A7
0000001C: 487A 0068      'Hz.h'            PEA        *+$006A             ; 00000086
00000020: 2F3C 7077 7063 '/<pwpc'          MOVE.L     #$70777063,-(A7)    ; 'pwpc'
00000026: 7001           'p.'              MOVEQ      #$01,D0
00000028: 2F00           '/.'              MOVE.L     D0,-(A7)
0000002A: 486E FEF6      'Hn..'            PEA        -$010A(A6)
0000002E: 486E FEFA      'Hn..'            PEA        -$0106(A6)
00000032: 486E FEFE      'Hn..'            PEA        -$0102(A6)
00000036: 3F3C 0001      '?<..'            MOVE.W     #$0001,-(A7)
0000003A: AA5A           '.Z'              _CodeFragmentDispatch                      ; AA5A
0000003C: 3E1F           '>.'              MOVE.W     (A7)+,D7
0000003E: 661A           'f.'              BNE.S      *+$001C             ; 0000005A
00000040: 558F           'U.'              SUBQ.L     #2,A7
00000042: 2F2E FEF6      '/...'            MOVE.L     -$010A(A6),-(A7)
00000046: 487A 002E      'Hz..'            PEA        *+$0030             ; 00000076
0000004A: 486E FEF2      'Hn..'            PEA        -$010E(A6)
0000004E: 486E FFFF      'Hn..'            PEA        -$0001(A6)
00000052: 3F3C 0005      '?<..'            MOVE.W     #$0005,-(A7)
00000056: AA5A           '.Z'              _CodeFragmentDispatch                      ; AA5A
00000058: 3E1F           '>.'              MOVE.W     (A7)+,D7
0000005A: 4A47           'JG'              TST.W      D7
0000005C: 660A           'f.'              BNE.S      *+$000C             ; 00000068
0000005E: 4EBA 0000      'N...'            JSR        INTERC_1750_LANLIB  ; id: 212
00000062: 206E FEF2      ' n..'            MOVEA.L    -$010E(A6),A0
00000066: 4E90           'N.'              JSR        (A0)
00000068: 204C           ' L'              MOVEA.L    A4,A0
0000006A: A01B           '..'              _SetZone                       ; A01B
0000006C: 4CEE 1880 FEE6 'L.....'          MOVEM.L    -$011A(A6),D7/A3/A4
00000072: 4E5E           'N^'              UNLK       A6
00000074: 4E75           'Nu'              RTS        
00000076: 0E49 6E69      '.Ini'            MOVES.W    D6,A1
0000007A: 7445           'tE'              MOVEQ      #$45,D2             ; 'E'
0000007C: 5072           'Pr'              DC.W       $5072               ; ????
0000007E: 696E           'in'              BVS.S      *+$0070             ; 000000EE
00000080: 7466           'tf'              MOVEQ      #$66,D2             ; 'f'
00000082: 5050           'PP'              ADDQ.W     #8,(A0)
00000084: 4300           'C.'              CHK.L      D0,D1
00000086: 0E45 7468      '.Eth'            MOVES.W    D5,D7
0000008A: 6572           'er'              BCS.S      *+$0074             ; 000000FE
0000008C: 5072           'Pr'              DC.W       $5072               ; ????
0000008E: 696E           'in'              BVS.S      *+$0070             ; 000000FE
00000090: 7466           'tf'              MOVEQ      #$66,D2             ; 'f'
00000092: 4C69 6200      'Lib.'            DC.W       $4C69 ,$6200 


Reference:           Flags=$18=(16BitPatch 32BitOffsets FromCode) 
                     Ref="INTERC_1750_LANLIB"(212)
                      00000060
Comment:    
    
   INTERC_2A80_ETHERPRINTFLIB ended due to: ran into next module, 10 nulls trimmed 

Comment:    
    
   #####################################################################################
   
   Module: INTERC_2B20_GRAYPAGE [2B20, 2BBA)
   
   Module started due to: MODGUESS (align, label)


Dictionary:          Flags $00 FirstId 261
                 261: INTERC_2B20_GRAYPAGE
Pad         



Module:              Flags=$88=(ForcedActive Extern Code)  Module="INTERC_2B20_GRAYPAGE"(261) Segment="Main"(200)
Size:                Flags $00 ModuleSize 154

Content:             Flags $08
Contents offset $0000 size $009A
00000000: 4E56 FFE8      'NV..'            LINK.W     A6,#-$0018
00000004: 48E7 1100      'H...'            MOVEM.L    D3/D7,-(A7)
00000008: 4207           'B.'              CLR.B      D7
0000000A: 7000           'p.'              MOVEQ      #$00,D0
0000000C: 2F00           '/.'              MOVE.L     D0,-(A7)
0000000E: 2F00           '/.'              MOVE.L     D0,-(A7)
00000010: 487A 007A      'Hz.z'            PEA        *+$007C             ; 0000008C
00000014: 2F00           '/.'              MOVE.L     D0,-(A7)
00000016: 2F00           '/.'              MOVE.L     D0,-(A7)
00000018: 2F00           '/.'              MOVE.L     D0,-(A7)
0000001A: 486E FFF0      'Hn..'            PEA        -$0010(A6)
0000001E: 70FD           'p.'              MOVEQ      #$FD,D0
00000020: ABE9           '..'              DC.W       $ABE9               ; TB 03E9
00000022: 4A80           'J.'              TST.L      D0
00000024: 4FEF 001C      'O...'            LEA        $001C(A7),A7
00000028: 6654           'fT'              BNE.S      *+$0056             ; 0000007E
0000002A: 7000           'p.'              MOVEQ      #$00,D0
0000002C: 2D40 FFE8      '-@..'            MOVE.L     D0,-$0018(A6)
00000030: 2D40 FFEC      '-@..'            MOVE.L     D0,-$0014(A6)
00000034: 486E FFEC      'Hn..'            PEA        -$0014(A6)
00000038: 486E FFE8      'Hn..'            PEA        -$0018(A6)
0000003C: 487A 004E      'Hz.N'            PEA        *+$0050             ; 0000008C
00000040: 486E FFF0      'Hn..'            PEA        -$0010(A6)
00000044: 70FA           'p.'              MOVEQ      #$FA,D0
00000046: ABE9           '..'              DC.W       $ABE9               ; TB 03E9
00000048: 4A80           'J.'              TST.L      D0
0000004A: 4FEF 0010      'O...'            LEA        $0010(A7),A7
0000004E: 6624           'f$'              BNE.S      *+$0026             ; 00000074
00000050: 4AAE FFE8      'J...'            TST.L      -$0018(A6)
00000054: 671E           'g.'              BEQ.S      *+$0020             ; 00000074
00000056: 7004           'p.'              MOVEQ      #$04,D0
00000058: B0AE FFEC      '....'            CMP.L      -$0014(A6),D0
0000005C: 6616           'f.'              BNE.S      *+$0018             ; 00000074
0000005E: 206E FFE8      ' n..'            MOVEA.L    -$0018(A6),A0
00000062: 7001           'p.'              MOVEQ      #$01,D0
00000064: B090           '..'              CMP.L      (A0),D0
00000066: 57C3           'W.'              SEQ        D3
00000068: 4403           'D.'              NEG.B      D3
0000006A: 6704           'g.'              BEQ.S      *+$0006             ; 00000070
0000006C: 7001           'p.'              MOVEQ      #$01,D0
0000006E: 6002           '`.'              BRA.S      *+$0004             ; 00000072
00000070: 7000           'p.'              MOVEQ      #$00,D0
00000072: 1E00           '..'              MOVE.B     D0,D7
00000074: 486E FFF0      'Hn..'            PEA        -$0010(A6)
00000078: 7003           'p.'              MOVEQ      #$03,D0
0000007A: ABE9           '..'              DC.W       $ABE9               ; TB 03E9
0000007C: 584F           'XO'              ADDQ.W     #4,A7
0000007E: 1D47 0008      '.G..'            MOVE.B     D7,$0008(A6)
00000082: 4CEE 0088 FFE0 'L.....'          MOVEM.L    -$0020(A6),D3/D7
00000088: 4E5E           'N^'              UNLK       A6
0000008A: 4E75           'Nu'              RTS        
0000008C: 4141           'AA'              DC.W       $4141               ; ????
0000008E: 504C           'PL'              ADDQ.W     #8,A4
00000090: 2C67           ',g'              MOVEA.L    -(A7),A6
00000092: 7261           'ra'              MOVEQ      #$61,D1             ; 'a'
00000094: 792D           'y-'              DC.W       $792D               ; ????
00000096: 7061           'pa'              MOVEQ      #$61,D0             ; 'a'
00000098: 6765           'ge'              BEQ.S      *+$0067             ; 000000FF

Comment:    
    
   INTERC_2B20_GRAYPAGE ended due to: ran into next module, 6 nulls trimmed

Comment:    
    
   #####################################################################################
   
   Module: INTERC_2BC0_DEBUGPRINT [2BC0, 2F3E)
   
   Module started due to: MODGUESS (align, label)
   
   Resolved outgoing references:
      +2E2 (2EA2): JSR INTERC_3040
      +2D4 (2E94): JSR INTERC_3020
      +2C0 (2E80): JSR INTERC_2FA0
      +2AC (2E6C): JSR INTERC_3060
      +294 (2E54): JSR INTERC_2F40
      +3E (2BFE): JSR INTERC_2FF0


Dictionary:          Flags $00 FirstId 262
                 262: INTERC_2BC0_DEBUGPRINT
Pad         



Module:              Flags=$88=(ForcedActive Extern Code)  Module="INTERC_2BC0_DEBUGPRINT"(262) Segment="Main"(200)
Size:                Flags $00 ModuleSize 894

Content:             Flags $08
Contents offset $0000 size $037E
00000000: 4E56 FEBC      'NV..'            LINK.W     A6,#-$0144
00000004: 48E7 1F18      'H...'            MOVEM.L    D3-D7/A3/A4,-(A7)
00000008: 7000           'p.'              MOVEQ      #$00,D0
0000000A: 2D40 FFD0      '-@..'            MOVE.L     D0,-$0030(A6)
0000000E: 2D40 FFD4      '-@..'            MOVE.L     D0,-$002C(A6)
00000012: 7C00           '|.'              MOVEQ      #$00,D6
00000014: 2D40 FFD8      '-@..'            MOVE.L     D0,-$0028(A6)
00000018: 7A00           'z.'              MOVEQ      #$00,D5
0000001A: 2D40 FFDC      '-@..'            MOVE.L     D0,-$0024(A6)
0000001E: 2D40 FFE0      '-@..'            MOVE.L     D0,-$0020(A6)
00000022: 2D40 FFE4      '-@..'            MOVE.L     D0,-$001C(A6)
00000026: 2D40 FFE8      '-@..'            MOVE.L     D0,-$0018(A6)
0000002A: 2D40 FFEC      '-@..'            MOVE.L     D0,-$0014(A6)
0000002E: 7A00           'z.'              MOVEQ      #$00,D5
00000030: 2D40 FFF0      '-@..'            MOVE.L     D0,-$0010(A6)
00000034: 2D40 FFF4      '-@..'            MOVE.L     D0,-$000C(A6)
00000038: 2D40 FFF8      '-@..'            MOVE.L     D0,-$0008(A6)
0000003C: 78FF           'x.'              MOVEQ      #$FF,D4
0000003E: 4EBA 0000      'N...'            JSR        INTERC_2FF0         ; id: 268
00000042: 4A00           'J.'              TST.B      D0
00000044: 6700 02A8      'g...'            BEQ        *+$02AA             ; 000002EE
00000048: 558F           'U.'              SUBQ.L     #2,A7
0000004A: 7001           'p.'              MOVEQ      #$01,D0
0000004C: 2F00           '/.'              MOVE.L     D0,-(A7)
0000004E: 7200           'r.'              MOVEQ      #$00,D1
00000050: 2F01           '/.'              MOVE.L     D1,-(A7)
00000052: 487A 0320      'Hz. '            PEA        *+$0322             ; 00000374
00000056: 7002           'p.'              MOVEQ      #$02,D0
00000058: 2F00           '/.'              MOVE.L     D0,-(A7)
0000005A: 2F3C 7077 7063 '/<pwpc'          MOVE.L     #$70777063,-(A7)    ; 'pwpc'
00000060: 486E FEC2      'Hn..'            PEA        -$013E(A6)
00000064: 486E FEC6      'Hn..'            PEA        -$013A(A6)
00000068: 486E FECB      'Hn..'            PEA        -$0135(A6)
0000006C: 486E FECC      'Hn..'            PEA        -$0134(A6)
00000070: 3F3C FFFE      '?<..'            MOVE.W     #$FFFE,-(A7)
00000074: AA5A           '.Z'              _CodeFragmentDispatch                      ; AA5A
00000076: 4A5F           'J_'              TST.W      (A7)+
00000078: 6600 0274      'f..t'            BNE        *+$0276             ; 000002EE
0000007C: 558F           'U.'              SUBQ.L     #2,A7
0000007E: 7001           'p.'              MOVEQ      #$01,D0
00000080: 2F00           '/.'              MOVE.L     D0,-(A7)
00000082: 2F2E FEC2      '/...'            MOVE.L     -$013E(A6),-(A7)
00000086: 487A 02D8      'Hz..'            PEA        *+$02DA             ; 00000360
0000008A: 486E FEBD      'Hn..'            PEA        -$0143(A6)
0000008E: 486E FEBE      'Hn..'            PEA        -$0142(A6)
00000092: 486E FFCC      'Hn..'            PEA        -$0034(A6)
00000096: 3F3C FFF6      '?<..'            MOVE.W     #$FFF6,-(A7)
0000009A: AA5A           '.Z'              _CodeFragmentDispatch                      ; AA5A
0000009C: 3E1F           '>.'              MOVE.W     (A7)+,D7
0000009E: 4A47           'JG'              TST.W      D7
000000A0: 660E           'f.'              BNE.S      *+$0010             ; 000000B0
000000A2: 558F           'U.'              SUBQ.L     #2,A7
000000A4: 2F2E FFCC      '/...'            MOVE.L     -$0034(A6),-(A7)
000000A8: 3F3C FFF9      '?<..'            MOVE.W     #$FFF9,-(A7)
000000AC: AA5A           '.Z'              _CodeFragmentDispatch                      ; AA5A
000000AE: 544F           'TO'              ADDQ.W     #2,A7
000000B0: 558F           'U.'              SUBQ.L     #2,A7
000000B2: 7001           'p.'              MOVEQ      #$01,D0
000000B4: 2F00           '/.'              MOVE.L     D0,-(A7)
000000B6: 2F2E FEC2      '/...'            MOVE.L     -$013E(A6),-(A7)
000000BA: 487A 0294      'Hz..'            PEA        *+$0296             ; 00000350
000000BE: 486E FEBD      'Hn..'            PEA        -$0143(A6)
000000C2: 486E FEBE      'Hn..'            PEA        -$0142(A6)
000000C6: 486E FFD0      'Hn..'            PEA        -$0030(A6)
000000CA: 3F3C FFF6      '?<..'            MOVE.W     #$FFF6,-(A7)
000000CE: AA5A           '.Z'              _CodeFragmentDispatch                      ; AA5A
000000D0: 3E1F           '>.'              MOVE.W     (A7)+,D7
000000D2: 4A47           'JG'              TST.W      D7
000000D4: 558F           'U.'              SUBQ.L     #2,A7
000000D6: 7001           'p.'              MOVEQ      #$01,D0
000000D8: 2F00           '/.'              MOVE.L     D0,-(A7)
000000DA: 2F2E FEC2      '/...'            MOVE.L     -$013E(A6),-(A7)
000000DE: 487A 0268      'Hz.h'            PEA        *+$026A             ; 00000348
000000E2: 486E FEBD      'Hn..'            PEA        -$0143(A6)
000000E6: 486E FEBE      'Hn..'            PEA        -$0142(A6)
000000EA: 486E FFD4      'Hn..'            PEA        -$002C(A6)
000000EE: 3F3C FFF6      '?<..'            MOVE.W     #$FFF6,-(A7)
000000F2: AA5A           '.Z'              _CodeFragmentDispatch                      ; AA5A
000000F4: 3E1F           '>.'              MOVE.W     (A7)+,D7
000000F6: 4A47           'JG'              TST.W      D7
000000F8: 4AAE FFD4      'J...'            TST.L      -$002C(A6)
000000FC: 6728           'g('              BEQ.S      *+$002A             ; 00000126
000000FE: 203C 766D 2020 ' <vm  '          MOVE.L     #$766D2020,D0       ; 'vm  '
00000104: 41EE FFFC      'A...'            LEA        -$0004(A6),A0
00000108: 2248           '"H'              MOVEA.L    A0,A1
0000010A: A1AD           '..'              _Gestalt                       ; A1AD
0000010C: 2288           '".'              MOVE.L     A0,(A1)
0000010E: 4A40           'J@'              TST.W      D0
00000110: 660E           'f.'              BNE.S      *+$0010             ; 00000120
00000112: 7001           'p.'              MOVEQ      #$01,D0
00000114: C0AE FFFC      '....'            AND.L      -$0004(A6),D0
00000118: 56C3           'V.'              SNE        D3
0000011A: 4403           'D.'              NEG.B      D3
0000011C: 49C3           'I.'              EXTB.L     D3
0000011E: 2C03           ',.'              MOVE.L     D3,D6
00000120: 206E FFD4      ' n..'            MOVEA.L    -$002C(A6),A0
00000124: 2086           ' .'              MOVE.L     D6,(A0)
00000126: 558F           'U.'              SUBQ.L     #2,A7
00000128: 7001           'p.'              MOVEQ      #$01,D0
0000012A: 2F00           '/.'              MOVE.L     D0,-(A7)
0000012C: 2F2E FEC2      '/...'            MOVE.L     -$013E(A6),-(A7)
00000130: 487A 0208      'Hz..'            PEA        *+$020A             ; 0000033A
00000134: 486E FEBD      'Hn..'            PEA        -$0143(A6)
00000138: 486E FEBE      'Hn..'            PEA        -$0142(A6)
0000013C: 486E FFD8      'Hn..'            PEA        -$0028(A6)
00000140: 3F3C FFF6      '?<..'            MOVE.W     #$FFF6,-(A7)
00000144: AA5A           '.Z'              _CodeFragmentDispatch                      ; AA5A
00000146: 3E1F           '>.'              MOVE.W     (A7)+,D7
00000148: 4A47           'JG'              TST.W      D7
0000014A: 4AAE FFD8      'J...'            TST.L      -$0028(A6)
0000014E: 670A           'g.'              BEQ.S      *+$000C             ; 0000015A
00000150: 206E FFD8      ' n..'            MOVEA.L    -$0028(A6),A0
00000154: 20BC 0200 4001 ' ...@.'          MOVE.L     #$02004001,(A0)
0000015A: 558F           'U.'              SUBQ.L     #2,A7
0000015C: 7001           'p.'              MOVEQ      #$01,D0
0000015E: 2F00           '/.'              MOVE.L     D0,-(A7)
00000160: 2F2E FEC2      '/...'            MOVE.L     -$013E(A6),-(A7)
00000164: 487A 01C8      'Hz..'            PEA        *+$01CA             ; 0000032E
00000168: 486E FEBD      'Hn..'            PEA        -$0143(A6)
0000016C: 486E FEBE      'Hn..'            PEA        -$0142(A6)
00000170: 486E FFDC      'Hn..'            PEA        -$0024(A6)
00000174: 3F3C FFF6      '?<..'            MOVE.W     #$FFF6,-(A7)
00000178: AA5A           '.Z'              _CodeFragmentDispatch                      ; AA5A
0000017A: 3E1F           '>.'              MOVE.W     (A7)+,D7
0000017C: 4A47           'JG'              TST.W      D7
0000017E: 4AAE FFDC      'J...'            TST.L      -$0024(A6)
00000182: 670A           'g.'              BEQ.S      *+$000C             ; 0000018E
00000184: 206E FFDC      ' n..'            MOVEA.L    -$0024(A6),A0
00000188: 20BC 0750 8000 ' ..P..'          MOVE.L     #$07508000,(A0)
0000018E: 558F           'U.'              SUBQ.L     #2,A7
00000190: 7001           'p.'              MOVEQ      #$01,D0
00000192: 2F00           '/.'              MOVE.L     D0,-(A7)
00000194: 2F2E FEC2      '/...'            MOVE.L     -$013E(A6),-(A7)
00000198: 487A 0188      'Hz..'            PEA        *+$018A             ; 00000322
0000019C: 486E FEBD      'Hn..'            PEA        -$0143(A6)
000001A0: 486E FEBE      'Hn..'            PEA        -$0142(A6)
000001A4: 486E FFE4      'Hn..'            PEA        -$001C(A6)
000001A8: 3F3C FFF6      '?<..'            MOVE.W     #$FFF6,-(A7)
000001AC: AA5A           '.Z'              _CodeFragmentDispatch                      ; AA5A
000001AE: 3E1F           '>.'              MOVE.W     (A7)+,D7
000001B0: 4A47           'JG'              TST.W      D7
000001B2: 4AAE FFE4      'J...'            TST.L      -$001C(A6)
000001B6: 6722           'g"'              BEQ.S      *+$0024             ; 000001DA
000001B8: 203C 726F 6D76 ' <romv'          MOVE.L     #$726F6D76,D0       ; 'romv'
000001BE: 41EE FFFC      'A...'            LEA        -$0004(A6),A0
000001C2: 2248           '"H'              MOVEA.L    A0,A1
000001C4: A1AD           '..'              _Gestalt                       ; A1AD
000001C6: 2288           '".'              MOVE.L     A0,(A1)
000001C8: 4A40           'J@'              TST.W      D0
000001CA: 6606           'f.'              BNE.S      *+$0008             ; 000001D2
000001CC: 2D6E FFFC FFE8 '-n....'          MOVE.L     -$0004(A6),-$0018(A6)
000001D2: 206E FFE4      ' n..'            MOVEA.L    -$001C(A6),A0
000001D6: 20AE FFE0      ' ...'            MOVE.L     -$0020(A6),(A0)
000001DA: 558F           'U.'              SUBQ.L     #2,A7
000001DC: 7001           'p.'              MOVEQ      #$01,D0
000001DE: 2F00           '/.'              MOVE.L     D0,-(A7)
000001E0: 2F2E FEC2      '/...'            MOVE.L     -$013E(A6),-(A7)
000001E4: 487A 012E      'Hz..'            PEA        *+$0130             ; 00000314
000001E8: 486E FEBD      'Hn..'            PEA        -$0143(A6)
000001EC: 486E FEBE      'Hn..'            PEA        -$0142(A6)
000001F0: 486E FFEC      'Hn..'            PEA        -$0014(A6)
000001F4: 3F3C FFF6      '?<..'            MOVE.W     #$FFF6,-(A7)
000001F8: AA5A           '.Z'              _CodeFragmentDispatch                      ; AA5A
000001FA: 3E1F           '>.'              MOVE.W     (A7)+,D7
000001FC: 4A47           'JG'              TST.W      D7
000001FE: 4AAE FFEC      'J...'            TST.L      -$0014(A6)
00000202: 670A           'g.'              BEQ.S      *+$000C             ; 0000020E
00000204: 2A38 02AE      '*8..'            MOVE.L     $02AE,D5
00000208: 206E FFEC      ' n..'            MOVEA.L    -$0014(A6),A0
0000020C: 2085           ' .'              MOVE.L     D5,(A0)
0000020E: 558F           'U.'              SUBQ.L     #2,A7
00000210: 7001           'p.'              MOVEQ      #$01,D0
00000212: 2F00           '/.'              MOVE.L     D0,-(A7)
00000214: 2F2E FEC2      '/...'            MOVE.L     -$013E(A6),-(A7)
00000218: 487A 00EE      'Hz..'            PEA        *+$00F0             ; 00000308
0000021C: 486E FEBD      'Hn..'            PEA        -$0143(A6)
00000220: 486E FEBE      'Hn..'            PEA        -$0142(A6)
00000224: 486E FFF0      'Hn..'            PEA        -$0010(A6)
00000228: 3F3C FFF6      '?<..'            MOVE.W     #$FFF6,-(A7)
0000022C: AA5A           '.Z'              _CodeFragmentDispatch                      ; AA5A
0000022E: 3E1F           '>.'              MOVE.W     (A7)+,D7
00000230: 4A47           'JG'              TST.W      D7
00000232: 4AAE FFF0      'J...'            TST.L      -$0010(A6)
00000236: 6728           'g('              BEQ.S      *+$002A             ; 00000260
00000238: 203C 726F 6D20 ' <rom '          MOVE.L     #$726F6D20,D0       ; 'rom '
0000023E: 41EE FFFC      'A...'            LEA        -$0004(A6),A0
00000242: 2248           '"H'              MOVEA.L    A0,A1
00000244: A1AD           '..'              _Gestalt                       ; A1AD
00000246: 2288           '".'              MOVE.L     A0,(A1)
00000248: 4A40           'J@'              TST.W      D0
0000024A: 6606           'f.'              BNE.S      *+$0008             ; 00000252
0000024C: 2D6E FFFC FFF4 '-n....'          MOVE.L     -$0004(A6),-$000C(A6)
00000252: 202E FFF4      ' ...'            MOVE.L     -$000C(A6),D0
00000256: D085           '..'              ADD.L      D5,D0
00000258: 5380           'S.'              SUBQ.L     #1,D0
0000025A: 206E FFF0      ' n..'            MOVEA.L    -$0010(A6),A0
0000025E: 2080           ' .'              MOVE.L     D0,(A0)
00000260: 558F           'U.'              SUBQ.L     #2,A7
00000262: 7001           'p.'              MOVEQ      #$01,D0
00000264: 2F00           '/.'              MOVE.L     D0,-(A7)
00000266: 2F2E FEC2      '/...'            MOVE.L     -$013E(A6),-(A7)
0000026A: 487A 008C      'Hz..'            PEA        *+$008E             ; 000002F8
0000026E: 486E FEBD      'Hn..'            PEA        -$0143(A6)
00000272: 486E FEBE      'Hn..'            PEA        -$0142(A6)
00000276: 486E FFF8      'Hn..'            PEA        -$0008(A6)
0000027A: 3F3C FFF6      '?<..'            MOVE.W     #$FFF6,-(A7)
0000027E: AA5A           '.Z'              _CodeFragmentDispatch                      ; AA5A
00000280: 3E1F           '>.'              MOVE.W     (A7)+,D7
00000282: 4A47           'JG'              TST.W      D7
00000284: 4AAE FFF8      'J...'            TST.L      -$0008(A6)
00000288: 670A           'g.'              BEQ.S      *+$000C             ; 00000294
0000028A: 70FA           'p.'              MOVEQ      #$FA,D0
0000028C: A05C           '.\'              _MemoryDispatch                      ; A05C
0000028E: 206E FFF8      ' n..'            MOVEA.L    -$0008(A6),A0
00000292: 2080           ' .'              MOVE.L     D0,(A0)
00000294: 4EBA 0000      'N...'            JSR        INTERC_2F40         ; id: 267
00000298: 2840           '(@'              MOVEA.L    D0,A4
0000029A: 200C           ' .'              MOVE.L     A4,D0
0000029C: 670A           'g.'              BEQ.S      *+$000C             ; 000002A8
0000029E: 2054           ' T'              MOVEA.L    (A4),A0
000002A0: 7800           'x.'              MOVEQ      #$00,D4
000002A2: 1828 0001      '.(..'            MOVE.B     $0001(A0),D4
000002A6: 4A84           'J.'              TST.L      D4
000002A8: 2F04           '/.'              MOVE.L     D4,-(A7)
000002AA: 2F06           '/.'              MOVE.L     D6,-(A7)
000002AC: 4EBA 0000      'N...'            JSR        INTERC_3060         ; id: 266
000002B0: 2640           '&@'              MOVEA.L    D0,A3
000002B2: 4AAE FFD0      'J...'            TST.L      -$0030(A6)
000002B6: 504F           'PO'              ADDQ.W     #8,A7
000002B8: 6706           'g.'              BEQ.S      *+$0008             ; 000002C0
000002BA: 206E FFD0      ' n..'            MOVEA.L    -$0030(A6),A0
000002BE: 208B           ' .'              MOVE.L     A3,(A0)
000002C0: 4EBA 0000      'N...'            JSR        INTERC_2FA0         ; id: 265
000002C4: 2640           '&@'              MOVEA.L    D0,A3
000002C6: 200C           ' .'              MOVE.L     A4,D0
000002C8: 6724           'g$'              BEQ.S      *+$0026             ; 000002EE
000002CA: 200B           ' .'              MOVE.L     A3,D0
000002CC: 6720           'g '              BEQ.S      *+$0022             ; 000002EE
000002CE: 204C           ' L'              MOVEA.L    A4,A0
000002D0: A029           '.)'              _HLock                         ; A029
000002D2: 2F06           '/.'              MOVE.L     D6,-(A7)
000002D4: 4EBA 0000      'N...'            JSR        INTERC_3020         ; id: 264
000002D8: 2800           '(.'              MOVE.L     D0,D4
000002DA: 2F14           '/.'              MOVE.L     (A4),-(A7)
000002DC: 4E93           'N.'              JSR        (A3)
000002DE: 2F04           '/.'              MOVE.L     D4,-(A7)
000002E0: 2F06           '/.'              MOVE.L     D6,-(A7)
000002E2: 4EBA 0000      'N...'            JSR        INTERC_3040         ; id: 263
000002E6: 204C           ' L'              MOVEA.L    A4,A0
000002E8: A02A           '.*'              _HUnlock                       ; A02A
000002EA: 4FEF 0010      'O...'            LEA        $0010(A7),A7
000002EE: 4CEE 18F8 FEA0 'L.....'          MOVEM.L    -$0160(A6),D3-D7/A3/A4
000002F4: 4E5E           'N^'              UNLK       A6
000002F6: 4E75           'Nu'              RTS        
000002F8: 0E6C 6F67 6963 '.logic'          MOVES.W    D6,$6963(A4)
000002FE: 616C           'al'              BSR.S      *+$006E             ; 0000036C
00000300: 5261           'Ra'              ADDQ.W     #1,-(A1)
00000302: 6D53           'mS'              BLT.S      *+$0055             ; 00000357
00000304: 697A           'iz'              BVS.S      *+$007C             ; 00000380
00000306: 6500 0A72      'e..r'            BCS        *+$0A74             ; 00000D7A
0000030A: 6F6D           'om'              BLE.S      *+$006F             ; 00000379
0000030C: 456E           'En'              DC.W       $456E               ; ????
0000030E: 6441           'dA'              BCC.S      *+$0043             ; 00000351
00000310: 6464           'dd'              BCC.S      *+$0066             ; 00000376
00000312: 7200           'r.'              MOVEQ      #$00,D1
00000314: 0C72 6F6D 4265 '.romBe'          CMPI.W     #$6F6D,$65(A2,D4.W*2) ; 'om'
0000031A: 6769           'gi'              BEQ.S      *+$006B             ; 00000385
0000031C: 6E41           'nA'              BGT.S      *+$0043             ; 0000035F
0000031E: 6464           'dd'              BCC.S      *+$0066             ; 00000384
00000320: 7200           'r.'              MOVEQ      #$00,D1
00000322: 0A72 6F6D 5665 '.romVe'          EORI.W     #$6F6D,$65(A2,D5.W*8) ; 'om'
00000328: 7273           'rs'              MOVEQ      #$73,D1             ; 's'
0000032A: 696F           'io'              BVS.S      *+$0071             ; 0000039B
0000032C: 6E00 0A73      'n..s'            BGT        *+$0A75             ; 00000DA1
00000330: 7973           'ys'              DC.W       $7973               ; ????
00000332: 5665           'Ve'              ADDQ.W     #3,-(A5)
00000334: 7273           'rs'              MOVEQ      #$73,D1             ; 's'
00000336: 696F           'io'              BVS.S      *+$0071             ; 000003A7
00000338: 6E00 0C6C      'n..l'            BGT        *+$0C6E             ; 00000FA6
0000033C: 6C4E           'lN'              BGE.S      *+$0050             ; 0000038C
0000033E: 7562           'ub'              DC.W       $7562               ; ????
00000340: 5665           'Ve'              ADDQ.W     #3,-(A5)
00000342: 7273           'rs'              MOVEQ      #$73,D1             ; 's'
00000344: 696F           'io'              BVS.S      *+$0071             ; 000003B5
00000346: 6E00 0676      'n..v'            BGT        *+$0678             ; 000009BE
0000034A: 6D49           'mI'              BLT.S      *+$004B             ; 00000395
0000034C: 734F           'sO'              DC.W       $734F               ; ????
0000034E: 6E00 0D6C      'n..l'            BGT        *+$0D6E             ; 000010BC
00000352: 6C4E           'lN'              BGE.S      *+$0050             ; 000003A2
00000354: 7562           'ub'              DC.W       $7562               ; ????
00000356: 5043           'PC'              ADDQ.W     #8,D3
00000358: 5361           'Sa'              SUBQ.W     #1,-(A1)
0000035A: 6D70           'mp'              BLT.S      *+$0072             ; 000003CC
0000035C: 6C65           'le'              BGE.S      *+$0067             ; 000003C3
0000035E: 0000 114C      '...L'            ORI.B      #$4C,D0             ; 'L'
00000362: 4C43 464D      'LCFM'            DIVU.L     D3,D5:D4
00000366: 4361           'Ca'              DC.W       $4361               ; ????
00000368: 6C6C           'll'              BGE.S      *+$006E             ; 000003D6
0000036A: 6261           'ba'              BHI.S      *+$0063             ; 000003CD
0000036C: 636B           'ck'              BLS.S      *+$006D             ; 000003D9
0000036E: 5072 6F63 0000 'Proc..'          ADDQ.W     #8,([$0000,A2],$094E6174)
             094E 6174      
00000378: 6976           'iv'              BVS.S      *+$0078             ; 000003F0
0000037A: 654E           'eN'              BCS.S      *+$0050             ; 000003CA
0000037C: 7562           'ub'              DC.W       $7562               ; ????


Dictionary:          Flags $00 FirstId 263
                 263: INTERC_3040

Reference:           Flags=$18=(16BitPatch 32BitOffsets FromCode) 
                     Ref="INTERC_3040"(263)
                      000002E4

Dictionary:          Flags $00 FirstId 264
                 264: INTERC_3020

Reference:           Flags=$18=(16BitPatch 32BitOffsets FromCode) 
                     Ref="INTERC_3020"(264)
                      000002D6

Dictionary:          Flags $00 FirstId 265
                 265: INTERC_2FA0

Reference:           Flags=$18=(16BitPatch 32BitOffsets FromCode) 
                     Ref="INTERC_2FA0"(265)
                      000002C2

Dictionary:          Flags $00 FirstId 266
                 266: INTERC_3060

Reference:           Flags=$18=(16BitPatch 32BitOffsets FromCode) 
                     Ref="INTERC_3060"(266)
                      000002AE

Dictionary:          Flags $00 FirstId 267
                 267: INTERC_2F40

Reference:           Flags=$18=(16BitPatch 32BitOffsets FromCode) 
                     Ref="INTERC_2F40"(267)
                      00000296

Dictionary:          Flags $00 FirstId 268
                 268: INTERC_2FF0

Reference:           Flags=$18=(16BitPatch 32BitOffsets FromCode) 
                     Ref="INTERC_2FF0"(268)
                      00000040
Comment:    
    
   INTERC_2BC0_DEBUGPRINT ended due to: ran into next module, 2 nulls trimmed

Comment:    
    
   #####################################################################################
   
   Module: INTERC_2F40 [2F40, 2F94)
   
   Module started due to: MODGUESS (align, label) 


Dictionary:          Flags $00 FirstId 269
                 269: INTERC_2F40



Module:              Flags=$88=(ForcedActive Extern Code)  Module="INTERC_2F40"(269) Segment="Main"(200)
Size:                Flags $00 ModuleSize 84

Content:             Flags $08
Contents offset $0000 size $0054
00000000: 4E56 0000      'NV..'            LINK.W     A6,#$0000
00000004: 2F0C           '/.'              MOVE.L     A4,-(A7)
00000006: 7004           'p.'              MOVEQ      #$04,D0
00000008: A522           '."'              _NewHandle  ,Sys                ; A522
0000000A: 2848           '(H'              MOVEA.L    A0,A4
0000000C: 200C           ' .'              MOVE.L     A4,D0
0000000E: 673A           'g:'              BEQ.S      *+$003C             ; 0000004A
00000010: 2054           ' T'              MOVEA.L    (A4),A0
00000012: 10BC 0001      '....'            MOVE.B     #$01,(A0)
00000016: 2054           ' T'              MOVEA.L    (A4),A0
00000018: 4228 0001      'B(..'            CLR.B      $0001(A0)
0000001C: 2054           ' T'              MOVEA.L    (A4),A0
0000001E: 4228 0002      'B(..'            CLR.B      $0002(A0)
00000022: 2054           ' T'              MOVEA.L    (A4),A0
00000024: 117C 0001 0003 '.|....'          MOVE.B     #$01,$0003(A0)
0000002A: 2054           ' T'              MOVEA.L    (A4),A0
0000002C: 4228 0004      'B(..'            CLR.B      $0004(A0)
00000030: 2054           ' T'              MOVEA.L    (A4),A0
00000032: 4228 0005      'B(..'            CLR.B      $0005(A0)
00000036: 2054           ' T'              MOVEA.L    (A4),A0
00000038: 4268 0006      'Bh..'            CLR.W      $0006(A0)
0000003C: 2054           ' T'              MOVEA.L    (A4),A0
0000003E: 7000           'p.'              MOVEQ      #$00,D0
00000040: 2140 0008      '!@..'            MOVE.L     D0,$0008(A0)
00000044: 2054           ' T'              MOVEA.L    (A4),A0
00000046: 2140 000C      '!@..'            MOVE.L     D0,$000C(A0)
0000004A: 200C           ' .'              MOVE.L     A4,D0
0000004C: 286E FFFC      '(n..'            MOVEA.L    -$0004(A6),A4
00000050: 4E5E           'N^'              UNLK       A6
00000052: 4E75           'Nu'              RTS        

Comment:    
    
   INTERC_2F40 ended due to: ran into next module, 12 nulls trimmed

Comment:    
    
   #####################################################################################
   
   Module: INTERC_2FA0 [2FA0, 2FE8)
   
   Module started due to: MODGUESS (align, label, RTS then padding) 


Dictionary:          Flags $00 FirstId 270
                 270: INTERC_2FA0



Module:              Flags=$88=(ForcedActive Extern Code)  Module="INTERC_2FA0"(270) Segment="Main"(200)
Size:                Flags $00 ModuleSize 72

Content:             Flags $08
Contents offset $0000 size $0048
00000000: 4E56 FFF8      'NV..'            LINK.W     A6,#-$0008
00000004: 2F07           '/.'              MOVE.L     D7,-(A7)
00000006: 303C A1AD      '0<..'            MOVE.W     #$A1AD,D0
0000000A: A346           '.F'              _GetOSTrapAddress                      ; A346
0000000C: 2D48 FFF8      '-H..'            MOVE.L     A0,-$0008(A6)
00000010: 303C A89F      '0<..'            MOVE.W     #$A89F,D0
00000014: A746           '.F'              _GetToolTrapAddress                      ; A746
00000016: 202E FFF8      ' ...'            MOVE.L     -$0008(A6),D0
0000001A: B1C0           '..'              CMPA.L     D0,A0
0000001C: 6604           'f.'              BNE.S      *+$0006             ; 00000022
0000001E: 7000           'p.'              MOVEQ      #$00,D0
00000020: 601E           '`.'              BRA.S      *+$0020             ; 00000040
00000022: 203C 636E 666E ' <cnfn'          MOVE.L     #$636E666E,D0       ; 'cnfn'
00000028: 41EE FFFC      'A...'            LEA        -$0004(A6),A0
0000002C: 2248           '"H'              MOVEA.L    A0,A1
0000002E: A1AD           '..'              _Gestalt                       ; A1AD
00000030: 2288           '".'              MOVE.L     A0,(A1)
00000032: 3E00           '>.'              MOVE.W     D0,D7
00000034: 4A47           'JG'              TST.W      D7
00000036: 6704           'g.'              BEQ.S      *+$0006             ; 0000003C
00000038: 7000           'p.'              MOVEQ      #$00,D0
0000003A: 6004           '`.'              BRA.S      *+$0006             ; 00000040
0000003C: 202E FFFC      ' ...'            MOVE.L     -$0004(A6),D0
00000040: 2E2E FFF4      '....'            MOVE.L     -$000C(A6),D7
00000044: 4E5E           'N^'              UNLK       A6
00000046: 4E75           'Nu'              RTS        

Comment:    
    
   INTERC_2FA0 ended due to: ran into next module, 8 nulls trimmed 

Comment:    
    
   #####################################################################################
   
   Module: INTERC_2FF0 [2FF0, 301A)
   
   Module started due to: MODGUESS (align, label, RTS then padding) 


Dictionary:          Flags $00 FirstId 271
                 271: INTERC_2FF0



Module:              Flags=$88=(ForcedActive Extern Code)  Module="INTERC_2FF0"(271) Segment="Main"(200)
Size:                Flags $00 ModuleSize 42

Content:             Flags $08
Contents offset $0000 size $002A
00000000: 4E56 FFFE      'NV..'            LINK.W     A6,#-$0002
00000004: 41EE FFFF      'A...'            LEA        -$0001(A6),A0
00000008: 203C 0001 00B0 ' <....'          MOVE.L     #$000100B0,D0
0000000E: A051           '.Q'              _ReadXPRam                      ; A051
00000010: 7200           'r.'              MOVEQ      #$00,D1
00000012: 122E FFFF      '....'            MOVE.B     -$0001(A6),D1
00000016: 4A81           'J.'              TST.L      D1
00000018: 343C 0080      '4<..'            MOVE.W     #$0080,D2
0000001C: C401           '..'              AND.B      D1,D2
0000001E: 5302           'S.'              SUBQ.B     #1,D2
00000020: 9502           '..'              SUBX.B     D2,D2
00000022: 5202           'R.'              ADDQ.B     #1,D2
00000024: 1002           '..'              MOVE.B     D2,D0
00000026: 4E5E           'N^'              UNLK       A6
00000028: 4E75           'Nu'              RTS        

Comment:    
    
   INTERC_2FF0 ended due to: ran into next module, 6 nulls trimmed 

Comment:    
    
   #####################################################################################
   
   Module: INTERC_3020 [3020, 303E)
   
   Module started due to: MODGUESS (align, label, RTS then padding) 


Dictionary:          Flags $00 FirstId 272
                 272: INTERC_3020



Module:              Flags=$88=(ForcedActive Extern Code)  Module="INTERC_3020"(272) Segment="Main"(200)
Size:                Flags $00 ModuleSize 30

Content:             Flags $08
Contents offset $0000 size $001E
00000000: 4E56 0000      'NV..'            LINK.W     A6,#$0000
00000004: 4AAF 0008      'J...'            TST.L      $0008(A7)
00000008: 6706           'g.'              BEQ.S      *+$0008             ; 00000010
0000000A: 7008           'p.'              MOVEQ      #$08,D0
0000000C: A08D           '..'              _DebugUtil                      ; A08D
0000000E: 6002           '`.'              BRA.S      *+$0004             ; 00000012
00000010: 40C0           '@.'              MOVE       SR,D0
00000012: 3200           '2.'              MOVE.W     D0,D1
00000014: 0041 0700      '.A..'            ORI.W      #$0700,D1
00000018: 46C1           'F.'              MOVE       D1,SR
0000001A: 4E5E           'N^'              UNLK       A6
0000001C: 4E75           'Nu'              RTS        

Comment:    
    
   INTERC_3020 ended due to: ran into next module, 2 nulls trimmed 

Comment:    
    
   #####################################################################################
   
   Module: INTERC_3040 [3040, 305C)
   
   Module started due to: MODGUESS (align, label, RTS then padding) 


Dictionary:          Flags $00 FirstId 273
                 273: INTERC_3040



Module:              Flags=$88=(ForcedActive Extern Code)  Module="INTERC_3040"(273) Segment="Main"(200)
Size:                Flags $00 ModuleSize 28

Content:             Flags $08
Contents offset $0000 size $001C
00000000: 4E56 0000      'NV..'            LINK.W     A6,#$0000
00000004: 2F03           '/.'              MOVE.L     D3,-(A7)
00000006: 262F 0010      '&/..'            MOVE.L     $0010(A7),D3
0000000A: 4AAF 000C      'J...'            TST.L      $000C(A7)
0000000E: 6704           'g.'              BEQ.S      *+$0006             ; 00000014
00000010: 7008           'p.'              MOVEQ      #$08,D0
00000012: A08D           '..'              _DebugUtil                      ; A08D
00000014: 46C3           'F.'              MOVE       D3,SR
00000016: 261F           '&.'              MOVE.L     (A7)+,D3
00000018: 4E5E           'N^'              UNLK       A6
0000001A: 4E75           'Nu'              RTS        

Comment:    
    
   INTERC_3040 ended due to: ran into next module, 4 nulls trimmed 

Comment:    
    
   #####################################################################################
   
   Module: INTERC_3060 [3060, 35D2)
   
   Module started due to: MODGUESS (align, label, RTS then padding)
   
   Unresolved outgoing references:
      +1E (307E): LEA $35F0, A1
      +552 (35B2): LEA $35EC, A0
      +566 (35C6): LEA $35EC, A0


Dictionary:          Flags $00 FirstId 274
                 274: INTERC_3060



Module:              Flags=$88=(ForcedActive Extern Code)  Module="INTERC_3060"(274) Segment="Main"(200)
Size:                Flags $00 ModuleSize 1394

Content:             Flags $08
Contents offset $0000 size $0572
00000000: 4E56 0000      'NV..'            LINK.W     A6,#$0000
00000004: 48E7 1030      'H..0'            MOVEM.L    D3/A2/A3,-(A7)
00000008: 95CA           '..'              SUBA.L     A2,A2
0000000A: 4AAF 0014      'J...'            TST.L      $0014(A7)
0000000E: 670A           'g.'              BEQ.S      *+$000C             ; 0000001A
00000010: 7008           'p.'              MOVEQ      #$08,D0
00000012: A08D           '..'              _DebugUtil                      ; A08D
00000014: 4E7A A801      'Nz..'            MOVEC      VBR,A2
00000018: 46C0           'F.'              MOVE       D0,SR
0000001A: 41FA 00F4      'A...'            LEA        *+$00F6,A0          ; 00000110
0000001E: 43FA 0570      'C..p'            LEA        *+$0572,A1          ; 00000590
00000022: 2009           ' .'              MOVE.L     A1,D0
00000024: 9088           '..'              SUB.L      A0,D0
00000026: 2600           '&.'              MOVE.L     D0,D3
00000028: A51E           '..'              _NewPtrSys                      ; A51E
0000002A: 4A40           'J@'              TST.W      D0
0000002C: 6600 0080      'f...'            BNE        *+$0082             ; 000000AE
00000030: 2003           ' .'              MOVE.L     D3,D0
00000032: 2248           '"H'              MOVEA.L    A0,A1
00000034: 41FA 00DA      'A...'            LEA        *+$00DC,A0          ; 00000110
00000038: A02E           '..'              _BlockMove                      ; A02E
0000003A: 41E9 0000      'A...'            LEA        $0000(A1),A0
0000003E: 20AA 005C      ' ..\'            MOVE.L     $005C(A2),(A0)
00000042: 41E9 0010      'A...'            LEA        $0010(A1),A0
00000046: 2548 005C      '%H.\'            MOVE.L     A0,$005C(A2)
0000004A: 41E9 0004      'A...'            LEA        $0004(A1),A0
0000004E: 20AA 0064      ' ..d'            MOVE.L     $0064(A2),(A0)
00000052: 41E9 041C      'A...'            LEA        $041C(A1),A0
00000056: 2548 0064      '%H.d'            MOVE.L     A0,$0064(A2)
0000005A: 2649           '&I'              MOVEA.L    A1,A3
0000005C: 41E9 0474      'A..t'            LEA        $0474(A1),A0
00000060: 43E9 0468      'C..h'            LEA        $0468(A1),A1
00000064: 2288           '".'              MOVE.L     A0,(A1)
00000066: 2478 0118      '$x..'            MOVEA.L    $0118,A2
0000006A: 2078 02A6      ' x..'            MOVEA.L    $02A6,A0
0000006E: 21C8 0118      '!...'            MOVE.L     A0,$0118
00000072: 42A7           'B.'              CLR.L      -(A7)
00000074: 486B 0468      'Hk.h'            PEA        $0468(A3)
00000078: 42A7           'B.'              CLR.L      -(A7)
0000007A: 1F3C 0001      '.<..'            MOVE.B     #$01,-(A7)
0000007E: 7000           'p.'              MOVEQ      #$00,D0
00000080: AA59           '.Y'              _MixedModeDispatch                      ; AA59
00000082: 205F           ' _'              MOVEA.L    (A7)+,A0
00000084: 21CA 0118      '!...'            MOVE.L     A2,$0118
00000088: 2748 0464      ''H.d'            MOVE.L     A0,$0464(A3)
0000008C: 41EB 043E      'A..>'            LEA        $043E(A3),A0
00000090: 43F8 02BE      'C...'            LEA        $02BE,A1
00000094: 4AAF 0018      'J...'            TST.L      $0018(A7)
00000098: 6B06           'k.'              BMI.S      *+$0008             ; 000000A0
0000009A: 6602           'f.'              BNE.S      *+$0004             ; 0000009E
0000009C: 5089           'P.'              ADDQ.L     #8,A1
0000009E: 2288           '".'              MOVE.L     A0,(A1)
000000A0: 41EB 0008      'A...'            LEA        $0008(A3),A0
000000A4: 2008           ' .'              MOVE.L     A0,D0
000000A6: 4CDF 0C08      'L...'            MOVEM.L    (A7)+,D3/A2/A3
000000AA: 4E5E           'N^'              UNLK       A6
000000AC: 4E75           'Nu'              RTS        
000000AE: 4AB8 0120      'J.. '            TST.L      $0120
000000B2: 67F2           'g.'              BEQ.S      *-$000C             ; 000000A6
000000B4: 487A 0006      'Hz..'            PEA        *+$0008             ; 000000BC
000000B8: ABFF           '..'              _DebugStr                      ; ABFF
000000BA: 60EA           '`.'              BRA.S      *-$0014             ; 000000A6
000000BC: 4823           'H#'              NBCD       -(A3)
000000BE: 2323           '##'              MOVE.L     -(A3),-(A1)
000000C0: 2050           ' P'              MOVEA.L    (A0),A0
000000C2: 5043           'PC'              ADDQ.W     #8,D3
000000C4: 2044           ' D'              MOVEA.L    D4,A0
000000C6: 6562           'eb'              BCS.S      *+$0064             ; 0000012A
000000C8: 7567           'ug'              DC.W       $7567               ; ????
000000CA: 6765           'ge'              BEQ.S      *+$0067             ; 00000131
000000CC: 7220           'r '              MOVEQ      #$20,D1             ; ' '
000000CE: 4E75           'Nu'              RTS        
000000D0: 622D           'b-'              BHI.S      *+$002F             ; 000000FF
000000D2: 206E 6F74      ' not'            MOVEA.L    $6F74(A6),A0
000000D6: 2065           ' e'              MOVEA.L    -(A5),A0
000000D8: 6E6F           'no'              BGT.S      *+$0071             ; 00000149
000000DA: 7567           'ug'              DC.W       $7567               ; ????
000000DC: 6820           'h '              BVC.S      *+$0022             ; 000000FE
000000DE: 726F           'ro'              MOVEQ      #$6F,D1             ; 'o'
000000E0: 6F6D           'om'              BLE.S      *+$006F             ; 0000014F
000000E2: 2069 6E20      ' in '            MOVEA.L    $6E20(A1),A0
000000E6: 5379 7374 656D 'System'          SUBQ.W     #1,$7374656D
000000EC: 2068 6561      ' hea'            MOVEA.L    $6561(A0),A0
000000F0: 7020           'p '              MOVEQ      #$20,D0             ; ' '
000000F2: 746F           'to'              MOVEQ      #$6F,D2             ; 'o'
000000F4: 2069 6E73      ' ins'            MOVEA.L    $6E73(A1),A0
000000F8: 7461           'ta'              MOVEQ      #$61,D2             ; 'a'
000000FA: 6C6C           'll'              BGE.S      *+$006E             ; 00000168
000000FC: 2068 616E      ' han'            MOVEA.L    $616E(A0),A0
00000100: 646C           'dl'              BCC.S      *+$006E             ; 0000016E
00000102: 6572           'er'              BCS.S      *+$0074             ; 00000176
00000104: 7300           's.'              DC.W       $7300               ; ????
00000106: 0000 0000      '....'            ORI.B      #$00,D0
0000010A: 0000 0000      '....'            ORI.B      #$00,D0
0000010E: 0000 0000      '....'            ORI.B      #$00,D0
00000112: 0000 0000      '....'            ORI.B      #$00,D0
00000116: 0000 0000      '....'            ORI.B      #$00,D0
0000011A: 0000 0000      '....'            ORI.B      #$00,D0
0000011E: 0000 2F08      '../.'            ORI.B      #$08,D0
00000122: 41FA FFF4      'A...'            LEA        *-$000A,A0          ; 00000118
00000126: 20EF 0118      ' ...'            MOVE.L     $0118(A7),(A0)+
0000012A: 20BC 0000 0001 ' .....'          MOVE.L     #$00000001,(A0)
00000130: 205F           ' _'              MOVEA.L    (A7)+,A0
00000132: FE07           '..'              FLINE      $FE07
00000134: 6602           'f.'              BNE.S      *+$0004             ; 00000138
00000136: 4E73           'Ns'              RTE        
00000138: 48E7 E0C0      'H...'            MOVEM.L    D0-D2/A0/A1,-(A7)
0000013C: 206F 0128      ' o.('            MOVEA.L    $0128(A7),A0
00000140: 611E           'a.'              BSR.S      *+$0020             ; 00000160
00000142: 670C           'g.'              BEQ.S      *+$000E             ; 00000150
00000144: 102F 002C      './.,'            MOVE.B     $002C(A7),D0
00000148: 4880           'H.'              EXT.W      D0
0000014A: 242F 0128      '$/.('            MOVE.L     $0128(A7),D2
0000014E: 6156           'aV'              BSR.S      *+$0058             ; 000001A6
00000150: 4CDF 0307      'L...'            MOVEM.L    (A7)+,D0-D2/A0/A1
00000154: 487A 00AA      'Hz..'            PEA        *+$00AC             ; 00000200
00000158: ABFF           '..'              _DebugStr                      ; ABFF
0000015A: 2F3A FFB4      '/:..'            MOVE.L     *-$004A,-(A7)       ; 00000110
0000015E: 4E75           'Nu'              RTS        
00000160: 0C98 7F83 1808 '......'          CMPI.L     #$7F831808,(A0)+
00000166: 663C           'f<'              BNE.S      *+$003E             ; 000001A4
00000168: 0C98 BBBB BBBB '......'          CMPI.L     #$BBBBBBBB,(A0)+
0000016E: 6634           'f4'              BNE.S      *+$0036             ; 000001A4
00000170: 2F28 0004      '/(..'            MOVE.L     $0004(A0),-(A7)
00000174: 41FA 0113      'A...'            LEA        *+$0115,A0          ; 00000289
00000178: 43FA 008F      'C...'            LEA        *+$0091,A1          ; 00000209
0000017C: 12D8           '..'              MOVE.B     (A0)+,(A1)+
0000017E: 66FC           'f.'              BNE.S      *-$0002             ; 0000017C
00000180: 137C 0020 FFFF '.|. ..'          MOVE.B     #$20,-$0001(A1)     ; ' '
00000186: 701A           'p.'              MOVEQ      #$1A,D0
00000188: 205F           ' _'              MOVEA.L    (A7)+,A0
0000018A: D018           '..'              ADD.B      (A0)+,D0
0000018C: 12FC 000D      '....'            MOVE.B     #$0D,(A1)+
00000190: 12D8           '..'              MOVE.B     (A0)+,(A1)+
00000192: 66FC           'f.'              BNE.S      *-$0002             ; 00000190
00000194: 41FA 006A      'A..j'            LEA        *+$006C,A0          ; 00000200
00000198: 1080           '..'              MOVE.B     D0,(A0)
0000019A: 41FA 006D      'A..m'            LEA        *+$006F,A0          ; 00000209
0000019E: 10BC 0020      '... '            MOVE.B     #$20,(A0)           ; ' '
000001A2: 7000           'p.'              MOVEQ      #$00,D0
000001A4: 4E75           'Nu'              RTS        
000001A6: D040           '.@'              ADD.W      D0,D0
000001A8: 41FA 0352      'A..R'            LEA        *+$0354,A0          ; 000004FC
000001AC: 3030 0000      '00..'            MOVE.W     $00(A0,D0.W),D0
000001B0: 90C0           '..'              SUBA.W     D0,A0
000001B2: 1010           '..'              MOVE.B     (A0),D0
000001B4: 2F08           '/.'              MOVE.L     A0,-(A7)
000001B6: 10BC 0020      '... '            MOVE.B     #$20,(A0)           ; ' '
000001BA: 1200           '..'              MOVE.B     D0,D1
000001BC: 0601 001F      '....'            ADDI.B     #$1F,D1
000001C0: 43FA 0047      'C..G'            LEA        *+$0049,A1          ; 00000209
000001C4: 12D8           '..'              MOVE.B     (A0)+,(A1)+
000001C6: 66FC           'f.'              BNE.S      *-$0002             ; 000001C4
000001C8: 205F           ' _'              MOVEA.L    (A7)+,A0
000001CA: 1080           '..'              MOVE.B     D0,(A0)
000001CC: 41FA 031D      'A...'            LEA        *+$031F,A0          ; 000004EB
000001D0: 10BC 0020      '... '            MOVE.B     #$20,(A0)           ; ' '
000001D4: 5349           'SI'              SUBQ.W     #1,A1
000001D6: 12D8           '..'              MOVE.B     (A0)+,(A1)+
000001D8: 66FC           'f.'              BNE.S      *-$0002             ; 000001D6
000001DA: 41FA 0024      'A..$'            LEA        *+$0026,A0          ; 00000200
000001DE: 1081           '..'              MOVE.B     D1,(A0)
000001E0: 5349           'SI'              SUBQ.W     #1,A1
000001E2: 721C           'r.'              MOVEQ      #$1C,D1
000001E4: 2002           ' .'              MOVE.L     D2,D0
000001E6: E2A8           '..'              LSR.L      D1,D0
000001E8: 0200 000F      '....'            ANDI.B     #$0F,D0
000001EC: 0600 0030      '...0'            ADDI.B     #$30,D0             ; '0'
000001F0: 0C00 0039      '...9'            CMPI.B     #$39,D0             ; '9'
000001F4: 6302           'c.'              BLS.S      *+$0004             ; 000001F8
000001F6: 5E00           '^.'              ADDQ.B     #7,D0
000001F8: 12C0           '..'              MOVE.B     D0,(A1)+
000001FA: 5981           'Y.'              SUBQ.L     #4,D1
000001FC: 6CE6           'l.'              BGE.S      *-$0018             ; 000001E4
000001FE: 4E75           'Nu'              RTS        
00000200: 0820 506F      '. Po'            BTST       #$6F,-(A0)
00000204: 7765           'we'              DC.W       $7765               ; ????
00000206: 7250           'rP'              MOVEQ      #$50,D1             ; 'P'
00000208: 4300           'C.'              CHK.L      D0,D1
0000020A: 0000 0000      '....'            ORI.B      #$00,D0
0000020E: 0000 0000      '....'            ORI.B      #$00,D0
00000212: 0000 0000      '....'            ORI.B      #$00,D0
00000216: 0000 0000      '....'            ORI.B      #$00,D0
0000021A: 0000 0000      '....'            ORI.B      #$00,D0
0000021E: 0000 0000      '....'            ORI.B      #$00,D0
00000222: 0000 0000      '....'            ORI.B      #$00,D0
00000226: 0000 0000      '....'            ORI.B      #$00,D0
0000022A: 0000 0000      '....'            ORI.B      #$00,D0
0000022E: 0000 0000      '....'            ORI.B      #$00,D0
00000232: 0000 0000      '....'            ORI.B      #$00,D0
00000236: 0000 0000      '....'            ORI.B      #$00,D0
0000023A: 0000 0000      '....'            ORI.B      #$00,D0
0000023E: 0000 0000      '....'            ORI.B      #$00,D0
00000242: 0000 0000      '....'            ORI.B      #$00,D0
00000246: 0000 0000      '....'            ORI.B      #$00,D0
0000024A: 0000 0000      '....'            ORI.B      #$00,D0
0000024E: 0000 0000      '....'            ORI.B      #$00,D0
00000252: 0000 0000      '....'            ORI.B      #$00,D0
00000256: 0000 0000      '....'            ORI.B      #$00,D0
0000025A: 0000 0000      '....'            ORI.B      #$00,D0
0000025E: 0000 0000      '....'            ORI.B      #$00,D0
00000262: 0000 0000      '....'            ORI.B      #$00,D0
00000266: 0000 0000      '....'            ORI.B      #$00,D0
0000026A: 0000 0000      '....'            ORI.B      #$00,D0
0000026E: 0000 0000      '....'            ORI.B      #$00,D0
00000272: 0000 0000      '....'            ORI.B      #$00,D0
00000276: 0000 0000      '....'            ORI.B      #$00,D0
0000027A: 0000 0000      '....'            ORI.B      #$00,D0
0000027E: 0000 0000      '....'            ORI.B      #$00,D0
00000282: 0000 0000      '....'            ORI.B      #$00,D0
00000286: 0000 000F      '....'            ORI.B      #$0F,D0
0000028A: 6465           'de'              BCC.S      *+$0067             ; 000002F1
0000028C: 6275           'bu'              BHI.S      *+$0077             ; 00000303
0000028E: 6767           'gg'              BEQ.S      *+$0069             ; 000002F7
00000290: 6572           'er'              BCS.S      *+$0074             ; 00000304
00000292: 2065           ' e'              MOVEA.L    -(A5),A0
00000294: 7272           'rr'              MOVEQ      #$72,D1             ; 'r'
00000296: 6F72           'or'              BLE.S      *+$0074             ; 0000030A
00000298: 3A00           ':.'              MOVE.W     D0,D5
0000029A: 0F3F           '.?'              DC.W       $0F3F               ; ????
0000029C: 3F20           '? '              MOVE.W     -(A0),-(A7)
0000029E: 6E6F           'no'              BGT.S      *+$0071             ; 0000030F
000002A0: 2065           ' e'              MOVEA.L    -(A5),A0
000002A2: 7863           'xc'              MOVEQ      #$63,D4             ; 'c'
000002A4: 6570           'ep'              BCS.S      *+$0072             ; 00000316
000002A6: 7469           'ti'              MOVEQ      #$69,D2             ; 'i'
000002A8: 6F6E           'on'              BLE.S      *+$0070             ; 00000318
000002AA: 000B 7379      '..sy'            ORI.B      #$79,A3             ; 'y'
000002AE: 7374           'st'              DC.W       $7374               ; ????
000002B0: 656D           'em'              BCS.S      *+$006F             ; 0000031F
000002B2: 2063           ' c'              MOVEA.L    -(A3),A0
000002B4: 616C           'al'              BSR.S      *+$006E             ; 00000322
000002B6: 6C00 0474      'l..t'            BGE        *+$0476             ; 0000072C
000002BA: 7261           'ra'              MOVEQ      #$61,D1             ; 'a'
000002BC: 7000           'p.'              MOVEQ      #$00,D0
000002BE: 0B65           '.e'              BCHG       D5,-(A5)
000002C0: 6E61           'na'              BGT.S      *+$0063             ; 00000323
000002C2: 626C           'bl'              BHI.S      *+$006E             ; 00000330
000002C4: 6564           'ed'              BCS.S      *+$0066             ; 0000032A
000002C6: 2046           ' F'              MOVEA.L    D6,A0
000002C8: 5055           'PU'              ADDQ.W     #8,(A5)
000002CA: 0013 696E      '..in'            ORI.B      #$6E,(A3)           ; 'n'
000002CE: 7661           'va'              MOVEQ      #$61,D3             ; 'a'
000002D0: 6C69           'li'              BGE.S      *+$006B             ; 0000033B
000002D2: 6420           'd '              BCC.S      *+$0022             ; 000002F4
000002D4: 696E           'in'              BVS.S      *+$0070             ; 00000344
000002D6: 7374           'st'              DC.W       $7374               ; ????
000002D8: 7275           'ru'              MOVEQ      #$75,D1             ; 'u'
000002DA: 6374           'ct'              BLS.S      *+$0076             ; 00000350
000002DC: 696F           'io'              BVS.S      *+$0071             ; 0000034D
000002DE: 6E00 1670      'n..p'            BGT        *+$1672             ; 00001950
000002E2: 7269           'ri'              MOVEQ      #$69,D1             ; 'i'
000002E4: 7669           'vi'              MOVEQ      #$69,D3             ; 'i'
000002E6: 6C65           'le'              BGE.S      *+$0067             ; 0000034D
000002E8: 6765           'ge'              BEQ.S      *+$0067             ; 0000034F
000002EA: 6420           'd '              BCC.S      *+$0022             ; 0000030C
000002EC: 696E           'in'              BVS.S      *+$0070             ; 0000035C
000002EE: 7374           'st'              DC.W       $7374               ; ????
000002F0: 7275           'ru'              MOVEQ      #$75,D1             ; 'u'
000002F2: 6374           'ct'              BLS.S      *+$0076             ; 00000368
000002F4: 696F           'io'              BVS.S      *+$0071             ; 00000365
000002F6: 6E00 093F      'n..?'            BGT        *+$0941             ; 00000C37
000002FA: 3F20           '? '              MOVE.W     -(A0),-(A7)
000002FC: 756E           'un'              DC.W       $756E               ; ????
000002FE: 7573           'us'              DC.W       $7573               ; ????
00000300: 6564           'ed'              BCS.S      *+$0066             ; 00000366
00000302: 000D 6D61      '..ma'            ORI.B      #$61,A5             ; 'a'
00000306: 6368           'ch'              BLS.S      *+$006A             ; 00000370
00000308: 696E           'in'              BVS.S      *+$0070             ; 00000378
0000030A: 6520           'e '              BCS.S      *+$0022             ; 0000032C
0000030C: 6368           'ch'              BLS.S      *+$006A             ; 00000376
0000030E: 6563           'ec'              BCS.S      *+$0065             ; 00000373
00000310: 6B00 1169      'k..i'            BMI        *+$116B             ; 0000147B
00000314: 6E73           'ns'              BGT.S      *+$0075             ; 00000389
00000316: 7472           'tr'              MOVEQ      #$72,D2             ; 'r'
00000318: 7563           'uc'              DC.W       $7563               ; ????
0000031A: 7469           'ti'              MOVEQ      #$69,D2             ; 'i'
0000031C: 6F6E           'on'              BLE.S      *+$0070             ; 0000038C
0000031E: 2074 7261      ' tra'            MOVEA.L    $61(A4,D7.W*2),A0
00000322: 6365           'ce'              BLS.S      *+$0067             ; 00000389
00000324: 0026 696E      '.&in'            ORI.B      #$6E,-(A6)          ; 'n'
00000328: 7374           'st'              DC.W       $7374               ; ????
0000032A: 7275           'ru'              MOVEQ      #$75,D1             ; 'u'
0000032C: 6374           'ct'              BLS.S      *+$0076             ; 000003A2
0000032E: 696F           'io'              BVS.S      *+$0071             ; 0000039F
00000330: 6E20           'n '              BGT.S      *+$0022             ; 00000352
00000332: 6164           'ad'              BSR.S      *+$0066             ; 00000398
00000334: 6472           'dr'              BCC.S      *+$0074             ; 000003A8
00000336: 6573           'es'              BCS.S      *+$0075             ; 000003AB
00000338: 7320           's '              DC.W       $7320               ; ????
0000033A: 636F           'co'              BLS.S      *+$0071             ; 000003AB
0000033C: 6D70           'mp'              BLT.S      *+$0072             ; 000003AE
0000033E: 6172           'ar'              BSR.S      *+$0074             ; 000003B2
00000340: 6520           'e '              BCS.S      *+$0022             ; 00000362
00000342: 6272           'br'              BHI.S      *+$0074             ; 000003B6
00000344: 6561           'ea'              BCS.S      *+$0063             ; 000003A7
00000346: 6B70           'kp'              BMI.S      *+$0072             ; 000003B8
00000348: 6F69           'oi'              BLE.S      *+$006B             ; 000003B3
0000034A: 6E74           'nt'              BGT.S      *+$0076             ; 000003C0
0000034C: 0022 696E      '."in'            ORI.B      #$6E,-(A2)          ; 'n'
00000350: 7374           'st'              DC.W       $7374               ; ????
00000352: 7275           'ru'              MOVEQ      #$75,D1             ; 'u'
00000354: 6374           'ct'              BLS.S      *+$0076             ; 000003CA
00000356: 696F           'io'              BVS.S      *+$0071             ; 000003C7
00000358: 6E20           'n '              BGT.S      *+$0022             ; 0000037A
0000035A: 6163           'ac'              BSR.S      *+$0065             ; 000003BF
0000035C: 6365           'ce'              BLS.S      *+$0067             ; 000003C3
0000035E: 7373           'ss'              DC.W       $7373               ; ????
00000360: 2069 6E76      ' inv'            MOVEA.L    $6E76(A1),A0
00000364: 616C           'al'              BSR.S      *+$006E             ; 000003D2
00000366: 6964           'id'              BVS.S      *+$0066             ; 000003CC
00000368: 2061           ' a'              MOVEA.L    -(A1),A0
0000036A: 6464           'dd'              BCC.S      *+$0066             ; 000003D0
0000036C: 7265           're'              MOVEQ      #$65,D1             ; 'e'
0000036E: 7373           'ss'              DC.W       $7373               ; ????
00000370: 0024 696E      '.$in'            ORI.B      #$6E,-(A4)          ; 'n'
00000374: 7374           'st'              DC.W       $7374               ; ????
00000376: 7275           'ru'              MOVEQ      #$75,D1             ; 'u'
00000378: 6374           'ct'              BLS.S      *+$0076             ; 000003EE
0000037A: 696F           'io'              BVS.S      *+$0071             ; 000003EB
0000037C: 6E20           'n '              BGT.S      *+$0022             ; 0000039E
0000037E: 6163           'ac'              BSR.S      *+$0065             ; 000003E3
00000380: 6365           'ce'              BLS.S      *+$0067             ; 000003E7
00000382: 7373           'ss'              DC.W       $7373               ; ????
00000384: 2068 6172      ' har'            MOVEA.L    $6172(A0),A0
00000388: 6477           'dw'              BCC.S      *+$0079             ; 00000401
0000038A: 6172           'ar'              BSR.S      *+$0074             ; 000003FE
0000038C: 6520           'e '              BCS.S      *+$0022             ; 000003AE
0000038E: 6465           'de'              BCC.S      *+$0067             ; 000003F5
00000390: 7465           'te'              MOVEQ      #$65,D2             ; 'e'
00000392: 6374           'ct'              BLS.S      *+$0076             ; 00000408
00000394: 6564           'ed'              BCS.S      *+$0066             ; 000003FA
00000396: 001D 696E      '..in'            ORI.B      #$6E,(A5)+          ; 'n'
0000039A: 7374           'st'              DC.W       $7374               ; ????
0000039C: 7275           'ru'              MOVEQ      #$75,D1             ; 'u'
0000039E: 6374           'ct'              BLS.S      *+$0076             ; 00000414
000003A0: 696F           'io'              BVS.S      *+$0071             ; 00000411
000003A2: 6E20           'n '              BGT.S      *+$0022             ; 000003C4
000003A4: 6163           'ac'              BSR.S      *+$0065             ; 00000409
000003A6: 6365           'ce'              BLS.S      *+$0067             ; 0000040D
000003A8: 7373           'ss'              DC.W       $7373               ; ????
000003AA: 2070           ' p'              DC.W       $2070               ; ????
000003AC: 6167           'ag'              BSR.S      *+$0069             ; 00000415
000003AE: 6520           'e '              BCS.S      *+$0022             ; 000003D0
000003B0: 6661           'fa'              BNE.S      *+$0063             ; 00000413
000003B2: 756C           'ul'              DC.W       $756C               ; ????
000003B4: 7400           't.'              MOVEQ      #$00,D2
000003B6: 093F           '.?'              DC.W       $093F               ; ????
000003B8: 3F20           '? '              MOVE.W     -(A0),-(A7)
000003BA: 756E           'un'              DC.W       $756E               ; ????
000003BC: 7573           'us'              DC.W       $7573               ; ????
000003BE: 6564           'ed'              BCS.S      *+$0066             ; 00000424
000003C0: 002D 696E 7374 '.-inst'          ORI.B      #$6E,$7374(A5)      ; 'n'
000003C6: 7275           'ru'              MOVEQ      #$75,D1             ; 'u'
000003C8: 6374           'ct'              BLS.S      *+$0076             ; 0000043E
000003CA: 696F           'io'              BVS.S      *+$0071             ; 0000043B
000003CC: 6E20           'n '              BGT.S      *+$0022             ; 000003EE
000003CE: 6163           'ac'              BSR.S      *+$0065             ; 00000433
000003D0: 6365           'ce'              BLS.S      *+$0067             ; 00000437
000003D2: 7373           'ss'              DC.W       $7373               ; ????
000003D4: 2073 7570 6572 ' super'          MOVEA.L    ($65727669,A3),A0
             7669           
000003DC: 736F           'so'              DC.W       $736F               ; ????
000003DE: 7220           'r '              MOVEQ      #$20,D1             ; ' '
000003E0: 7265           're'              MOVEQ      #$65,D1             ; 'e'
000003E2: 6164           'ad'              BSR.S      *+$0066             ; 00000448
000003E4: 2070 726F      ' pro'            MOVEA.L    $6F(A0,D7.W*2),A0
000003E8: 7465           'te'              MOVEQ      #$65,D2             ; 'e'
000003EA: 6374           'ct'              BLS.S      *+$0076             ; 00000460
000003EC: 696F           'io'              BVS.S      *+$0071             ; 0000045D
000003EE: 6E00 093F      'n..?'            BGT        *+$0941             ; 00000D2F
000003F2: 3F20           '? '              MOVE.W     -(A0),-(A7)
000003F4: 756E           'un'              DC.W       $756E               ; ????
000003F6: 7573           'us'              DC.W       $7573               ; ????
000003F8: 6564           'ed'              BCS.S      *+$0066             ; 0000045E
000003FA: 000A 6461      '..da'            ORI.B      #$61,A2             ; 'a'
000003FE: 7461           'ta'              MOVEQ      #$61,D2             ; 'a'
00000400: 2074 7261      ' tra'            MOVEA.L    $61(A4,D7.W*2),A0
00000404: 6365           'ce'              BLS.S      *+$0067             ; 0000046B
00000406: 001F 6461      '..da'            ORI.B      #$61,(A7)+          ; 'a'
0000040A: 7461           'ta'              MOVEQ      #$61,D2             ; 'a'
0000040C: 2061           ' a'              MOVEA.L    -(A1),A0
0000040E: 6464           'dd'              BCC.S      *+$0066             ; 00000474
00000410: 7265           're'              MOVEQ      #$65,D1             ; 'e'
00000412: 7373           'ss'              DC.W       $7373               ; ????
00000414: 2063           ' c'              MOVEA.L    -(A3),A0
00000416: 6F6D           'om'              BLE.S      *+$006F             ; 00000485
00000418: 7061           'pa'              MOVEQ      #$61,D0             ; 'a'
0000041A: 7265           're'              MOVEQ      #$65,D1             ; 'e'
0000041C: 2062           ' b'              MOVEA.L    -(A2),A0
0000041E: 7265           're'              MOVEQ      #$65,D1             ; 'e'
00000420: 616B           'ak'              BSR.S      *+$006D             ; 0000048D
00000422: 706F           'po'              MOVEQ      #$6F,D0             ; 'o'
00000424: 696E           'in'              BVS.S      *+$0070             ; 00000494
00000426: 7400           't.'              MOVEQ      #$00,D2
00000428: 1B64 6174      '.dat'            MOVE.B     -(A4),$6174(A5)
0000042C: 6120           'a '              BSR.S      *+$0022             ; 0000044E
0000042E: 6163           'ac'              BSR.S      *+$0065             ; 00000493
00000430: 6365           'ce'              BLS.S      *+$0067             ; 00000497
00000432: 7373           'ss'              DC.W       $7373               ; ????
00000434: 2069 6E76      ' inv'            MOVEA.L    $6E76(A1),A0
00000438: 616C           'al'              BSR.S      *+$006E             ; 000004A6
0000043A: 6964           'id'              BVS.S      *+$0066             ; 000004A0
0000043C: 2061           ' a'              MOVEA.L    -(A1),A0
0000043E: 6464           'dd'              BCC.S      *+$0066             ; 000004A4
00000440: 7265           're'              MOVEQ      #$65,D1             ; 'e'
00000442: 7373           'ss'              DC.W       $7373               ; ????
00000444: 001D 6461      '..da'            ORI.B      #$61,(A5)+          ; 'a'
00000448: 7461           'ta'              MOVEQ      #$61,D2             ; 'a'
0000044A: 2061           ' a'              MOVEA.L    -(A1),A0
0000044C: 6363           'cc'              BLS.S      *+$0065             ; 000004B1
0000044E: 6573           'es'              BCS.S      *+$0075             ; 000004C3
00000450: 7320           's '              DC.W       $7320               ; ????
00000452: 6861           'ha'              BVC.S      *+$0063             ; 000004B5
00000454: 7264           'rd'              MOVEQ      #$64,D1             ; 'd'
00000456: 7761           'wa'              DC.W       $7761               ; ????
00000458: 7265           're'              MOVEQ      #$65,D1             ; 'e'
0000045A: 2064           ' d'              MOVEA.L    -(A4),A0
0000045C: 6574           'et'              BCS.S      *+$0076             ; 000004D2
0000045E: 6563           'ec'              BCS.S      *+$0065             ; 000004C3
00000460: 7465           'te'              MOVEQ      #$65,D2             ; 'e'
00000462: 6400 1664      'd..d'            BCC        *+$1666             ; 00001AC8
00000466: 6174           'at'              BSR.S      *+$0076             ; 000004DC
00000468: 6120           'a '              BSR.S      *+$0022             ; 0000048A
0000046A: 6163           'ac'              BSR.S      *+$0065             ; 000004CF
0000046C: 6365           'ce'              BLS.S      *+$0067             ; 000004D3
0000046E: 7373           'ss'              DC.W       $7373               ; ????
00000470: 2070           ' p'              DC.W       $2070               ; ????
00000472: 6167           'ag'              BSR.S      *+$0069             ; 000004DB
00000474: 6520           'e '              BCS.S      *+$0022             ; 00000496
00000476: 6661           'fa'              BNE.S      *+$0063             ; 000004D9
00000478: 756C           'ul'              DC.W       $756C               ; ????
0000047A: 7400           't.'              MOVEQ      #$00,D2
0000047C: 1C64           '.d'              MOVE.B     -(A4),A6
0000047E: 6174           'at'              BSR.S      *+$0076             ; 000004F4
00000480: 6120           'a '              BSR.S      *+$0022             ; 000004A2
00000482: 6163           'ac'              BSR.S      *+$0065             ; 000004E7
00000484: 6365           'ce'              BLS.S      *+$0067             ; 000004EB
00000486: 7373           'ss'              DC.W       $7373               ; ????
00000488: 2077 7269      ' wri'            MOVEA.L    $69(A7,D7.W*2),A0
0000048C: 7465           'te'              MOVEQ      #$65,D2             ; 'e'
0000048E: 2070 726F      ' pro'            MOVEA.L    $6F(A0,D7.W*2),A0
00000492: 7465           'te'              MOVEQ      #$65,D2             ; 'e'
00000494: 6374           'ct'              BLS.S      *+$0076             ; 0000050A
00000496: 696F           'io'              BVS.S      *+$0071             ; 00000507
00000498: 6E00 2664      'n.&d'            BGT        *+$2666             ; 00002AFE
0000049C: 6174           'at'              BSR.S      *+$0076             ; 00000512
0000049E: 6120           'a '              BSR.S      *+$0022             ; 000004C0
000004A0: 6163           'ac'              BSR.S      *+$0065             ; 00000505
000004A2: 6365           'ce'              BLS.S      *+$0067             ; 00000509
000004A4: 7373           'ss'              DC.W       $7373               ; ????
000004A6: 2073 7570 6572 ' super'          MOVEA.L    ($65727669,A3),A0
             7669           
000004AE: 736F           'so'              DC.W       $736F               ; ????
000004B0: 7220           'r '              MOVEQ      #$20,D1             ; ' '
000004B2: 7265           're'              MOVEQ      #$65,D1             ; 'e'
000004B4: 6164           'ad'              BSR.S      *+$0066             ; 0000051A
000004B6: 2070 726F      ' pro'            MOVEA.L    $6F(A0,D7.W*2),A0
000004BA: 7465           'te'              MOVEQ      #$65,D2             ; 'e'
000004BC: 6374           'ct'              BLS.S      *+$0076             ; 00000532
000004BE: 696F           'io'              BVS.S      *+$0071             ; 0000052F
000004C0: 6E00 2764      'n.'d'            BGT        *+$2766             ; 00002C26
000004C4: 6174           'at'              BSR.S      *+$0076             ; 0000053A
000004C6: 6120           'a '              BSR.S      *+$0022             ; 000004E8
000004C8: 6163           'ac'              BSR.S      *+$0065             ; 0000052D
000004CA: 6365           'ce'              BLS.S      *+$0067             ; 00000531
000004CC: 7373           'ss'              DC.W       $7373               ; ????
000004CE: 2073 7570 6572 ' super'          MOVEA.L    ($65727669,A3),A0
             7669           
000004D6: 736F           'so'              DC.W       $736F               ; ????
000004D8: 7220           'r '              MOVEQ      #$20,D1             ; ' '
000004DA: 7772           'wr'              DC.W       $7772               ; ????
000004DC: 6974           'it'              BVS.S      *+$0076             ; 00000552
000004DE: 6520           'e '              BCS.S      *+$0022             ; 00000500
000004E0: 7072           'pr'              MOVEQ      #$72,D0             ; 'r'
000004E2: 6F74           'ot'              BLE.S      *+$0076             ; 00000558
000004E4: 6563           'ec'              BCS.S      *+$0065             ; 00000549
000004E6: 7469           'ti'              MOVEQ      #$69,D2             ; 'i'
000004E8: 6F6E           'on'              BLE.S      *+$0070             ; 00000558
000004EA: 000D 6578      '..ex'            ORI.B      #$78,A5             ; 'x'
000004EE: 6365           'ce'              BLS.S      *+$0067             ; 00000555
000004F0: 7074           'pt'              MOVEQ      #$74,D0             ; 't'
000004F2: 696F           'io'              BVS.S      *+$0071             ; 00000563
000004F4: 6E20           'n '              BGT.S      *+$0022             ; 00000516
000004F6: 6174           'at'              BSR.S      *+$0076             ; 0000056C
000004F8: 2000           ' .'              MOVE.L     D0,D0
000004FA: 0000 0262      '...b'            ORI.B      #$62,D0             ; 'b'
000004FE: 0251 0244      '.Q.D'            ANDI.W     #$0244,(A1)
00000502: 023E           '.>'              DC.W       $023E               ; ????
00000504: 0231 021C 0204 '.1....'          ANDI.B     #$1C,$04(A1,D0.W*2)
0000050A: 01F9 01EA 01D7 '......'          BSET       D0,$01EA01D7
00000510: 01AF 018B      '....'            BCLR       D0,$018B(A7)
00000514: 0165           '.e'              BCHG       D0,-(A5)
00000516: 0146           '.F'              BCHG       D0,D6
00000518: 013B           '.;'              DC.W       $013B               ; ????
0000051A: 010C 0101      '....'            MOVEP.W    $0101(A4),D0
0000051E: 00F5 00D4 00B7 '......'          CMP2.B     -$49(A5,D0.W),D0
00000524: 0098 0080 0062 '.....b'          ORI.L      #$00800062,(A0)+
0000052A: 003A 48E7 00C0 '.:H...'          ORI.B      #$E7,*+$00C4        ; 000005EE
00000530: 206F 000A      ' o..'            MOVEA.L    $000A(A7),A0
00000534: 43FA FBEA      'C...'            LEA        *-$0414,A1          ; 00000120
00000538: B3C8           '..'              CMPA.L     A0,A1
0000053A: 6708           'g.'              BEQ.S      *+$000A             ; 00000544
0000053C: 43FA FBDA      'C...'            LEA        *-$0424,A1          ; 00000118
00000540: 22C8           '".'              MOVE.L     A0,(A1)+
00000542: 4291           'B.'              CLR.L      (A1)
00000544: 4CDF 0300      'L...'            MOVEM.L    (A7)+,A0/A1
00000548: 2F3A FBCA      '/:..'            MOVE.L     *-$0434,-(A7)       ; 00000114
0000054C: 4E75           'Nu'              RTS        
0000054E: 48E7 00C0      'H...'            MOVEM.L    A0/A1,-(A7)
00000552: 41FA 0038      'A..8'            LEA        *+$003A,A0          ; 0000058C
00000556: 08D0 0000      '....'            BSET       #$00,(A0)
0000055A: 6710           'g.'              BEQ.S      *+$0012             ; 0000056C
0000055C: 12BC 0010      '....'            MOVE.B     #$10,(A1)
00000560: 207A 0012      ' z..'            MOVEA.L    *+$0014,A0          ; 00000574
00000564: 4E90           'N.'              JSR        (A0)
00000566: 41FA 0024      'A..$'            LEA        *+$0026,A0          ; 0000058C
0000056A: 4210           'B.'              CLR.B      (A0)
0000056C: 4CDF 0300      'L...'            MOVEM.L    (A7)+,A0/A1
00000570: 4E75           'Nu'              RTS        

Comment:    
    
   INTERC_3060 ended due to: ran into next module, 14 nulls trimmed

Comment:    
    
   #####################################################################################
   
   Module: AUTOMOD_35E0 [35E0, 3600)
   
   Module started due to: MODGUESS (align, RTS then padding) 


Dictionary:          Flags $00 FirstId 275
                 275: AUTOMOD_35E0
Pad         



Module:              Flags=$88=(ForcedActive Extern Code)  Module="AUTOMOD_35E0"(275) Segment="Main"(200)
Size:                Flags $00 ModuleSize 32

Content:             Flags $08
Contents offset $0000 size $0020
00000000: 0000 0000      '....'            ORI.B      #$00,D0
00000004: 7F83           '..'              DC.W       $7F83               ; ????
00000006: 1808           '..'              MOVE.B     A0,D4
00000008: 4E80           'N.'              JSR        D0
0000000A: 0020 0000      '. ..'            ORI.B      #$00,-(A0)
0000000E: 0000 0000      '....'            ORI.B      #$00,D0
00000012: 0000 0000      '....'            ORI.B      #$00,D0
00000016: 0000 0000      '....'            ORI.B      #$00,D0
0000001A: 0000 0000      '....'            ORI.B      #$00,D0
0000001E: 0000           '..'              DC.W       $0000 

Comment:    
    
   AUTOMOD_35E0 ended due to: end of FILE directive


Last        
Record Summary 
Type Count
   0 Pad                     21
   1 First                    1
   2 Last                     1
   3 Comment                 81
   4 Dictionary              73
   5 Module                  40
   6 EntryPoint               3
   7 ModSize                 40
   8 Content                 40
   9 Reference               81
